	.file	"\277\255\310\366\264\253\313\265Alpha.cpp"
	.text
	.p2align 4,,15
	.def	___tcf_0;	.scl	3;	.type	32;	.endef
___tcf_0:
LFB1437:
	.cfi_startproc
	movl	$__ZStL8__ioinit, %ecx
	jmp	__ZNSt8ios_base4InitD1Ev
	.cfi_endproc
LFE1437:
	.section	.text.unlikely,"x"
	.def	__ZStlsISt11char_traitsIcEERSt13basic_ostreamIcT_ES5_PKc.part.1;	.scl	3;	.type	32;	.endef
__ZStlsISt11char_traitsIcEERSt13basic_ostreamIcT_ES5_PKc.part.1:
LFB1440:
	.cfi_startproc
	pushl	%ebp
	.cfi_def_cfa_offset 8
	.cfi_offset 5, -8
	movl	%esp, %ebp
	.cfi_def_cfa_register 5
	subl	$24, %esp
	movl	(%eax), %edx
	addl	-12(%edx), %eax
	movl	20(%eax), %edx
	movl	%eax, %ecx
	orl	$1, %edx
	movl	%edx, (%esp)
	call	__ZNSt9basic_iosIcSt11char_traitsIcEE5clearESt12_Ios_Iostate
	pushl	%eax
	leave
	.cfi_restore 5
	.cfi_def_cfa 4, 4
	ret
	.cfi_endproc
LFE1440:
	.def	__ZN9__gnu_cxxL27__exchange_and_add_dispatchEPii.constprop.11;	.scl	3;	.type	32;	.endef
__ZN9__gnu_cxxL27__exchange_and_add_dispatchEPii.constprop.11:
LFB1449:
	.cfi_startproc
	cmpl	$0, __CRT_MT
	je	L5
	orl	$-1, %edx
	lock xaddl	%edx, (%eax)
	movl	%edx, %eax
	ret
L5:
	movl	(%eax), %edx
	leal	-1(%edx), %ecx
	movl	%ecx, (%eax)
	movl	%edx, %eax
	ret
	.cfi_endproc
LFE1449:
	.text
	.p2align 4,,15
	.globl	__Z9Color_Setii
	.def	__Z9Color_Setii;	.scl	2;	.type	32;	.endef
__Z9Color_Setii:
LFB1360:
	.cfi_startproc
	pushl	%ebp
	.cfi_def_cfa_offset 8
	.cfi_offset 5, -8
	movl	%esp, %ebp
	.cfi_def_cfa_register 5
	pushl	%ebx
	.cfi_offset 3, -12
	movl	$256, %ebx
	subl	$20, %esp
	movl	8(%ebp), %eax
	movl	$-11, (%esp)
	sall	$4, %eax
	addl	12(%ebp), %eax
	subl	$17, %eax
	testl	%eax, %eax
	movzwl	%ax, %edx
	cmovne	%edx, %ebx
	call	_GetStdHandle@4
	subl	$4, %esp
	movl	%ebx, 4(%esp)
	movl	%eax, (%esp)
	call	_SetConsoleTextAttribute@8
	movl	-4(%ebp), %ebx
	subl	$8, %esp
	leave
	.cfi_restore 5
	.cfi_restore 3
	.cfi_def_cfa 4, 4
	ret
	.cfi_endproc
LFE1360:
	.p2align 4,,15
	.globl	__Z11Color_Clearv
	.def	__Z11Color_Clearv;	.scl	2;	.type	32;	.endef
__Z11Color_Clearv:
LFB1361:
	.cfi_startproc
	pushl	%ebp
	.cfi_def_cfa_offset 8
	.cfi_offset 5, -8
	movl	%esp, %ebp
	.cfi_def_cfa_register 5
	subl	$24, %esp
	movl	$-11, (%esp)
	call	_GetStdHandle@4
	subl	$4, %esp
	movl	$7, 4(%esp)
	movl	%eax, (%esp)
	call	_SetConsoleTextAttribute@8
	subl	$8, %esp
	leave
	.cfi_restore 5
	.cfi_def_cfa 4, 4
	ret
	.cfi_endproc
LFE1361:
	.p2align 4,,15
	.globl	__Z7Pos_Setii
	.def	__Z7Pos_Setii;	.scl	2;	.type	32;	.endef
__Z7Pos_Setii:
LFB1362:
	.cfi_startproc
	pushl	%ebp
	.cfi_def_cfa_offset 8
	.cfi_offset 5, -8
	movl	%esp, %ebp
	.cfi_def_cfa_register 5
	pushl	%ebx
	subl	$20, %esp
	.cfi_offset 3, -12
	movzwl	12(%ebp), %eax
	movzwl	8(%ebp), %ebx
	movl	$-11, (%esp)
	sall	$16, %eax
	orl	%eax, %ebx
	call	_GetStdHandle@4
	subl	$4, %esp
	movl	%ebx, 4(%esp)
	movl	%eax, (%esp)
	call	_SetConsoleCursorPosition@8
	movl	-4(%ebp), %ebx
	subl	$8, %esp
	leave
	.cfi_restore 5
	.cfi_restore 3
	.cfi_def_cfa 4, 4
	ret
	.cfi_endproc
LFE1362:
	.p2align 4,,15
	.globl	__Z3endi
	.def	__Z3endi;	.scl	2;	.type	32;	.endef
__Z3endi:
LFB1365:
	.cfi_startproc
	pushl	%ebp
	.cfi_def_cfa_offset 8
	.cfi_offset 5, -8
	movl	%esp, %ebp
	.cfi_def_cfa_register 5
	pushl	%edi
	pushl	%esi
	pushl	%ebx
	subl	$28, %esp
	.cfi_offset 7, -12
	.cfi_offset 6, -16
	.cfi_offset 3, -20
	movl	8(%ebp), %edi
	testl	%edi, %edi
	jle	L16
	movl	__ZSt4cout, %eax
	movl	-12(%eax), %eax
	movl	__ZSt4cout+124(%eax), %ebx
	testl	%ebx, %ebx
	je	L19
	movl	$1, %esi
	jmp	L20
	.p2align 4,,7
L29:
	movzbl	39(%ebx), %eax
L22:
	movsbl	%al, %eax
	movl	$__ZSt4cout, %ecx
	movl	%eax, (%esp)
	addl	$1, %esi
	call	__ZNSo3putEc
	subl	$4, %esp
	movl	%eax, %ecx
	call	__ZNSo5flushEv
	cmpl	%esi, %edi
	jl	L16
	movl	__ZSt4cout, %eax
	movl	-12(%eax), %eax
	movl	__ZSt4cout+124(%eax), %ebx
	testl	%ebx, %ebx
	je	L19
L20:
	cmpb	$0, 28(%ebx)
	jne	L29
	movl	%ebx, %ecx
	call	__ZNKSt5ctypeIcE13_M_widen_initEv
	movl	(%ebx), %eax
	movl	%ebx, %ecx
	movl	$10, (%esp)
	call	*24(%eax)
	subl	$4, %esp
	jmp	L22
	.p2align 4,,7
L16:
	leal	-12(%ebp), %esp
	popl	%ebx
	.cfi_remember_state
	.cfi_restore 3
	popl	%esi
	.cfi_restore 6
	popl	%edi
	.cfi_restore 7
	popl	%ebp
	.cfi_restore 5
	.cfi_def_cfa 4, 4
	ret
L19:
	.cfi_restore_state
	call	__ZSt16__throw_bad_castv
	.cfi_endproc
LFE1365:
	.section .rdata,"dr"
LC0:
	.ascii " \0"
	.text
	.p2align 4,,15
	.globl	__Z5spacei
	.def	__Z5spacei;	.scl	2;	.type	32;	.endef
__Z5spacei:
LFB1366:
	.cfi_startproc
	pushl	%esi
	.cfi_def_cfa_offset 8
	.cfi_offset 6, -8
	pushl	%ebx
	.cfi_def_cfa_offset 12
	.cfi_offset 3, -12
	movl	$1, %ebx
	subl	$20, %esp
	.cfi_def_cfa_offset 32
	movl	32(%esp), %esi
	testl	%esi, %esi
	jle	L30
	.p2align 4,,7
L34:
	movl	$1, 8(%esp)
	addl	$1, %ebx
	movl	$LC0, 4(%esp)
	movl	$__ZSt4cout, (%esp)
	call	__ZSt16__ostream_insertIcSt11char_traitsIcEERSt13basic_ostreamIT_T0_ES6_PKS3_i
	cmpl	%ebx, %esi
	jge	L34
L30:
	addl	$20, %esp
	.cfi_def_cfa_offset 12
	popl	%ebx
	.cfi_restore 3
	.cfi_def_cfa_offset 8
	popl	%esi
	.cfi_restore 6
	.cfi_def_cfa_offset 4
	ret
	.cfi_endproc
LFE1366:
	.section .rdata,"dr"
LC1:
	.ascii "cls\0"
	.align 4
LC2:
	.ascii " \263\314\320\362\263\366\317\326bug!!!\12(\304\343\313\306\272\365\314\375\274\373\301\313\327\367\325\337\265\304\260\247\272\277)\12\0"
LC3:
	.ascii " \307\353\301\242\274\264\317\362\327\367\325\337\273\343\261\250\12\0"
LC4:
	.ascii " \264\355\316\363\264\372\302\353:\" \0"
LC5:
	.ascii " \"\12\0"
	.align 4
LC6:
	.ascii " \264\355\316\363\264\372\302\353\277\311\322\324\317\362\327\367\325\337\321\257\316\312\243\254\326\247\263\326\323\316\317\267\241\243\0"
LC7:
	.ascii "pause\0"
	.text
	.p2align 4,,15
	.globl	__Z5checkSsSs
	.def	__Z5checkSsSs;	.scl	2;	.type	32;	.endef
__Z5checkSsSs:
LFB1367:
	.cfi_startproc
	pushl	%esi
	.cfi_def_cfa_offset 8
	.cfi_offset 6, -8
	pushl	%ebx
	.cfi_def_cfa_offset 12
	.cfi_offset 3, -12
	subl	$20, %esp
	.cfi_def_cfa_offset 32
	movl	32(%esp), %ebx
	movl	$LC1, (%esp)
	movl	36(%esp), %esi
	call	_system
	movl	$41, 8(%esp)
	movl	$LC2, 4(%esp)
	movl	$__ZSt4cout, (%esp)
	call	__ZSt16__ostream_insertIcSt11char_traitsIcEERSt13basic_ostreamIT_T0_ES6_PKS3_i
	movl	$18, 8(%esp)
	movl	$LC3, 4(%esp)
	movl	$__ZSt4cout, (%esp)
	call	__ZSt16__ostream_insertIcSt11char_traitsIcEERSt13basic_ostreamIT_T0_ES6_PKS3_i
	movl	$12, 8(%esp)
	movl	$LC4, 4(%esp)
	movl	$__ZSt4cout, (%esp)
	call	__ZSt16__ostream_insertIcSt11char_traitsIcEERSt13basic_ostreamIT_T0_ES6_PKS3_i
	movl	(%ebx), %eax
	movl	-12(%eax), %edx
	movl	%eax, 4(%esp)
	movl	$__ZSt4cout, (%esp)
	movl	%edx, 8(%esp)
	call	__ZSt16__ostream_insertIcSt11char_traitsIcEERSt13basic_ostreamIT_T0_ES6_PKS3_i
	movl	$1, 8(%esp)
	movl	$LC0, 4(%esp)
	movl	%eax, (%esp)
	movl	%eax, %ebx
	call	__ZSt16__ostream_insertIcSt11char_traitsIcEERSt13basic_ostreamIT_T0_ES6_PKS3_i
	movl	(%esi), %eax
	movl	-12(%eax), %edx
	movl	%ebx, (%esp)
	movl	%eax, 4(%esp)
	movl	%edx, 8(%esp)
	call	__ZSt16__ostream_insertIcSt11char_traitsIcEERSt13basic_ostreamIT_T0_ES6_PKS3_i
	movl	$3, 8(%esp)
	movl	$LC5, 4(%esp)
	movl	%eax, (%esp)
	call	__ZSt16__ostream_insertIcSt11char_traitsIcEERSt13basic_ostreamIT_T0_ES6_PKS3_i
	movl	$35, 8(%esp)
	movl	$LC6, 4(%esp)
	movl	$__ZSt4cout, (%esp)
	call	__ZSt16__ostream_insertIcSt11char_traitsIcEERSt13basic_ostreamIT_T0_ES6_PKS3_i
	movl	$LC7, 32(%esp)
	addl	$20, %esp
	.cfi_def_cfa_offset 12
	popl	%ebx
	.cfi_restore 3
	.cfi_def_cfa_offset 8
	popl	%esi
	.cfi_restore 6
	.cfi_def_cfa_offset 4
	jmp	_system
	.cfi_endproc
LFE1367:
	.section .rdata,"dr"
LC8:
	.ascii "#\0"
	.text
	.p2align 4,,15
	.globl	__Z7Loadingv
	.def	__Z7Loadingv;	.scl	2;	.type	32;	.endef
__Z7Loadingv:
LFB1368:
	.cfi_startproc
	pushl	%ebp
	.cfi_def_cfa_offset 8
	.cfi_offset 5, -8
	movl	%esp, %ebp
	.cfi_def_cfa_register 5
	pushl	%esi
	.cfi_offset 6, -12
	movl	$13, %esi
	pushl	%ebx
	subl	$16, %esp
	.cfi_offset 3, -16
	movl	$LC1, (%esp)
	call	_system
	jmp	L43
	.p2align 4,,7
L51:
	movzbl	39(%ebx), %eax
L41:
	movsbl	%al, %eax
	movl	$__ZSt4cout, %ecx
	movl	%eax, (%esp)
	call	__ZNSo3putEc
	subl	$4, %esp
	movl	%eax, %ecx
	call	__ZNSo5flushEv
	subl	$1, %esi
	je	L49
L43:
	movl	__ZSt4cout, %eax
	movl	-12(%eax), %eax
	movl	__ZSt4cout+124(%eax), %ebx
	testl	%ebx, %ebx
	je	L50
	cmpb	$0, 28(%ebx)
	jne	L51
	movl	%ebx, %ecx
	call	__ZNKSt5ctypeIcE13_M_widen_initEv
	movl	(%ebx), %eax
	movl	%ebx, %ecx
	movl	$10, (%esp)
	call	*24(%eax)
	subl	$4, %esp
	jmp	L41
	.p2align 4,,7
L49:
	movl	$15, %ebx
	.p2align 4,,7
L45:
	movl	$1, 8(%esp)
	movl	$LC0, 4(%esp)
	movl	$__ZSt4cout, (%esp)
	call	__ZSt16__ostream_insertIcSt11char_traitsIcEERSt13basic_ostreamIT_T0_ES6_PKS3_i
	subl	$1, %ebx
	jne	L45
	movl	$50, %ebx
	.p2align 4,,7
L47:
	movl	$1, 8(%esp)
	movl	$LC8, 4(%esp)
	movl	$__ZSt4cout, (%esp)
	call	__ZSt16__ostream_insertIcSt11char_traitsIcEERSt13basic_ostreamIT_T0_ES6_PKS3_i
	movl	$5, (%esp)
	call	_Sleep@4
	subl	$4, %esp
	subl	$1, %ebx
	jne	L47
	leal	-8(%ebp), %esp
	popl	%ebx
	.cfi_remember_state
	.cfi_restore 3
	popl	%esi
	.cfi_restore 6
	popl	%ebp
	.cfi_restore 5
	.cfi_def_cfa 4, 4
	ret
L50:
	.cfi_restore_state
	call	__ZSt16__throw_bad_castv
	.cfi_endproc
LFE1368:
	.p2align 4,,15
	.globl	__Z6Randomii
	.def	__Z6Randomii;	.scl	2;	.type	32;	.endef
__Z6Randomii:
LFB1369:
	.cfi_startproc
	pushl	%ebx
	.cfi_def_cfa_offset 8
	.cfi_offset 3, -8
	subl	$24, %esp
	.cfi_def_cfa_offset 32
	movl	$0, (%esp)
	movl	32(%esp), %ebx
	call	__time64
	movl	%eax, (%esp)
	call	_srand
	call	_rand
	movl	36(%esp), %ecx
	addl	$24, %esp
	.cfi_def_cfa_offset 8
	subl	%ebx, %ecx
	cltd
	idivl	%ecx
	leal	(%edx,%ebx), %eax
	popl	%ebx
	.cfi_restore 3
	.cfi_def_cfa_offset 4
	ret
	.cfi_endproc
LFE1369:
	.p2align 4,,15
	.globl	__Z15Change_a_littlei
	.def	__Z15Change_a_littlei;	.scl	2;	.type	32;	.endef
__Z15Change_a_littlei:
LFB1370:
	.cfi_startproc
	movl	4(%esp), %eax
	movl	%eax, %edx
	shrl	$31, %edx
	addl	%edx, %eax
	sarl	%eax
	subl	$5, %eax
	ret
	.cfi_endproc
LFE1370:
	.section .rdata,"dr"
	.align 4
LC9:
	.ascii "                                                                                                                                                            \0"
	.align 4
LC10:
	.ascii "                                                              \304\343\265\304\321\252\301\277      : \0"
LC11:
	.ascii "/\0"
	.align 4
LC12:
	.ascii "                                                              \304\343\265\304\314\345\301\246      : \0"
	.align 4
LC13:
	.ascii "                                                              \304\343\265\304\271\245\273\367\301\246    : \0"
	.align 4
LC14:
	.ascii "                                                              \304\343\265\304\267\300\323\371\301\246    : \0"
	.align 4
LC15:
	.ascii "                                                              \304\343\265\304\313\331\266\310      : \0"
	.align 4
LC16:
	.ascii "                                                              \304\343\265\304\265\310\274\266      : \0"
	.align 4
LC17:
	.ascii "                                                              \304\343\265\304\276\255\321\351\326\265    : \0"
	.align 4
LC18:
	.ascii "                                                              \271\326\316\357\265\304\321\252\301\277    : \0"
	.align 4
LC19:
	.ascii "                                                              \271\326\316\357\265\304\314\345\301\246    : \0"
	.align 4
LC20:
	.ascii "                                                              \271\326\316\357\265\304\271\245\273\367\301\246  : \0"
	.align 4
LC21:
	.ascii "                                                              \271\326\316\357\265\304\267\300\323\371\301\246  : \0"
	.text
	.p2align 4,,15
	.globl	__Z10Check_Body7monster
	.def	__Z10Check_Body7monster;	.scl	2;	.type	32;	.endef
__Z10Check_Body7monster:
LFB1374:
	.cfi_startproc
	pushl	%ebp
	.cfi_def_cfa_offset 8
	.cfi_offset 5, -8
	movl	%esp, %ebp
	.cfi_def_cfa_register 5
	pushl	%esi
	pushl	%ebx
	subl	$16, %esp
	.cfi_offset 6, -12
	.cfi_offset 3, -16
	movl	$LC1, (%esp)
	call	_system
	movl	$156, 8(%esp)
	movl	$LC9, 4(%esp)
	movl	$__ZSt4cout, (%esp)
	call	__ZSt16__ostream_insertIcSt11char_traitsIcEERSt13basic_ostreamIT_T0_ES6_PKS3_i
	movl	__ZSt4cout, %eax
	movl	-12(%eax), %eax
	movl	__ZSt4cout+124(%eax), %ebx
	testl	%ebx, %ebx
	je	L59
	cmpb	$0, 28(%ebx)
	je	L57
	movzbl	39(%ebx), %eax
L58:
	movsbl	%al, %eax
	movl	$__ZSt4cout, %ecx
	movl	%eax, (%esp)
	call	__ZNSo3putEc
	subl	$4, %esp
	movl	%eax, %ecx
	call	__ZNSo5flushEv
	movl	$156, 8(%esp)
	movl	$LC9, 4(%esp)
	movl	$__ZSt4cout, (%esp)
	call	__ZSt16__ostream_insertIcSt11char_traitsIcEERSt13basic_ostreamIT_T0_ES6_PKS3_i
	movl	__ZSt4cout, %eax
	movl	-12(%eax), %eax
	movl	__ZSt4cout+124(%eax), %ebx
	testl	%ebx, %ebx
	je	L59
	cmpb	$0, 28(%ebx)
	je	L60
	movzbl	39(%ebx), %eax
L61:
	movsbl	%al, %eax
	movl	$__ZSt4cout, %ecx
	movl	%eax, (%esp)
	call	__ZNSo3putEc
	subl	$4, %esp
	movl	%eax, %ecx
	call	__ZNSo5flushEv
	movl	$156, 8(%esp)
	movl	$LC9, 4(%esp)
	movl	$__ZSt4cout, (%esp)
	call	__ZSt16__ostream_insertIcSt11char_traitsIcEERSt13basic_ostreamIT_T0_ES6_PKS3_i
	movl	$__ZSt4cout, (%esp)
	call	__ZSt4endlIcSt11char_traitsIcEERSt13basic_ostreamIT_T0_ES6_
	movl	$156, 8(%esp)
	movl	$LC9, 4(%esp)
	movl	$__ZSt4cout, (%esp)
	call	__ZSt16__ostream_insertIcSt11char_traitsIcEERSt13basic_ostreamIT_T0_ES6_PKS3_i
	movl	__ZSt4cout, %eax
	movl	-12(%eax), %eax
	movl	__ZSt4cout+124(%eax), %ebx
	testl	%ebx, %ebx
	je	L59
	cmpb	$0, 28(%ebx)
	je	L62
	movzbl	39(%ebx), %eax
L63:
	movsbl	%al, %eax
	movl	$__ZSt4cout, %ecx
	movl	%eax, (%esp)
	call	__ZNSo3putEc
	subl	$4, %esp
	movl	%eax, %ecx
	call	__ZNSo5flushEv
	movl	$156, 8(%esp)
	movl	$LC9, 4(%esp)
	movl	$__ZSt4cout, (%esp)
	call	__ZSt16__ostream_insertIcSt11char_traitsIcEERSt13basic_ostreamIT_T0_ES6_PKS3_i
	movl	$__ZSt4cout, (%esp)
	call	__ZSt4endlIcSt11char_traitsIcEERSt13basic_ostreamIT_T0_ES6_
	movl	_Hero+4, %ebx
	movl	$78, 8(%esp)
	movl	_Hero+8, %esi
	movl	$LC10, 4(%esp)
	movl	$__ZSt4cout, (%esp)
	call	__ZSt16__ostream_insertIcSt11char_traitsIcEERSt13basic_ostreamIT_T0_ES6_PKS3_i
	movl	$__ZSt4cout, %ecx
	movl	%ebx, (%esp)
	call	__ZNSolsEi
	subl	$4, %esp
	movl	%eax, %ebx
	movl	$1, 8(%esp)
	movl	$LC11, 4(%esp)
	movl	%eax, (%esp)
	call	__ZSt16__ostream_insertIcSt11char_traitsIcEERSt13basic_ostreamIT_T0_ES6_PKS3_i
	movl	%ebx, %ecx
	movl	%esi, (%esp)
	call	__ZNSolsEi
	movl	%eax, %esi
	movl	(%eax), %eax
	subl	$4, %esp
	movl	-12(%eax), %eax
	movl	124(%esi,%eax), %ebx
	testl	%ebx, %ebx
	je	L59
	cmpb	$0, 28(%ebx)
	je	L64
	movzbl	39(%ebx), %eax
L65:
	movsbl	%al, %eax
	movl	%esi, %ecx
	movl	%eax, (%esp)
	call	__ZNSo3putEc
	subl	$4, %esp
	movl	%eax, %ecx
	call	__ZNSo5flushEv
	movl	_Hero+12, %ebx
	movl	$78, 8(%esp)
	movl	_Hero+16, %esi
	movl	$LC12, 4(%esp)
	movl	$__ZSt4cout, (%esp)
	call	__ZSt16__ostream_insertIcSt11char_traitsIcEERSt13basic_ostreamIT_T0_ES6_PKS3_i
	movl	$__ZSt4cout, %ecx
	movl	%ebx, (%esp)
	call	__ZNSolsEi
	subl	$4, %esp
	movl	%eax, %ebx
	movl	$1, 8(%esp)
	movl	$LC11, 4(%esp)
	movl	%eax, (%esp)
	call	__ZSt16__ostream_insertIcSt11char_traitsIcEERSt13basic_ostreamIT_T0_ES6_PKS3_i
	movl	%ebx, %ecx
	movl	%esi, (%esp)
	call	__ZNSolsEi
	subl	$4, %esp
	movl	%eax, (%esp)
	call	__ZSt4endlIcSt11char_traitsIcEERSt13basic_ostreamIT_T0_ES6_
	movl	_Hero+24, %ebx
	movl	$78, 8(%esp)
	movl	$LC13, 4(%esp)
	movl	$__ZSt4cout, (%esp)
	call	__ZSt16__ostream_insertIcSt11char_traitsIcEERSt13basic_ostreamIT_T0_ES6_PKS3_i
	movl	$__ZSt4cout, %ecx
	movl	%ebx, (%esp)
	call	__ZNSolsEi
	subl	$4, %esp
	movl	%eax, (%esp)
	call	__ZSt4endlIcSt11char_traitsIcEERSt13basic_ostreamIT_T0_ES6_
	movl	_Hero+20, %ebx
	movl	$78, 8(%esp)
	movl	$LC14, 4(%esp)
	movl	$__ZSt4cout, (%esp)
	call	__ZSt16__ostream_insertIcSt11char_traitsIcEERSt13basic_ostreamIT_T0_ES6_PKS3_i
	movl	$__ZSt4cout, %ecx
	movl	%ebx, (%esp)
	call	__ZNSolsEi
	movl	%eax, %esi
	movl	(%eax), %eax
	subl	$4, %esp
	movl	-12(%eax), %eax
	movl	124(%esi,%eax), %ebx
	testl	%ebx, %ebx
	je	L59
	cmpb	$0, 28(%ebx)
	je	L66
	movzbl	39(%ebx), %eax
L67:
	movsbl	%al, %eax
	movl	%esi, %ecx
	movl	%eax, (%esp)
	call	__ZNSo3putEc
	subl	$4, %esp
	movl	%eax, %ecx
	call	__ZNSo5flushEv
	movl	_Hero+28, %ebx
	movl	$78, 8(%esp)
	movl	$LC15, 4(%esp)
	movl	$__ZSt4cout, (%esp)
	call	__ZSt16__ostream_insertIcSt11char_traitsIcEERSt13basic_ostreamIT_T0_ES6_PKS3_i
	movl	$__ZSt4cout, %ecx
	movl	%ebx, (%esp)
	call	__ZNSolsEi
	movl	%eax, %esi
	movl	(%eax), %eax
	subl	$4, %esp
	movl	-12(%eax), %eax
	movl	124(%esi,%eax), %ebx
	testl	%ebx, %ebx
	je	L59
	cmpb	$0, 28(%ebx)
	je	L68
	movzbl	39(%ebx), %eax
L69:
	movsbl	%al, %eax
	movl	%esi, %ecx
	movl	%eax, (%esp)
	call	__ZNSo3putEc
	subl	$4, %esp
	movl	%eax, %ecx
	call	__ZNSo5flushEv
	movl	_Hero+156, %ebx
	movl	$78, 8(%esp)
	movl	$LC16, 4(%esp)
	movl	$__ZSt4cout, (%esp)
	call	__ZSt16__ostream_insertIcSt11char_traitsIcEERSt13basic_ostreamIT_T0_ES6_PKS3_i
	movl	$__ZSt4cout, %ecx
	movl	%ebx, (%esp)
	call	__ZNSolsEi
	subl	$4, %esp
	movl	%eax, (%esp)
	call	__ZSt4endlIcSt11char_traitsIcEERSt13basic_ostreamIT_T0_ES6_
	movl	_Hero+160, %ebx
	movl	$78, 8(%esp)
	movl	$LC17, 4(%esp)
	movl	$__ZSt4cout, (%esp)
	call	__ZSt16__ostream_insertIcSt11char_traitsIcEERSt13basic_ostreamIT_T0_ES6_PKS3_i
	movl	$__ZSt4cout, %ecx
	movl	%ebx, (%esp)
	call	__ZNSolsEi
	subl	$4, %esp
	movl	%eax, (%esp)
	call	__ZSt4endlIcSt11char_traitsIcEERSt13basic_ostreamIT_T0_ES6_
	movl	$__ZSt4cout, (%esp)
	call	__ZSt4endlIcSt11char_traitsIcEERSt13basic_ostreamIT_T0_ES6_
	movl	__ZSt4cout, %eax
	movl	-12(%eax), %eax
	movl	__ZSt4cout+124(%eax), %ebx
	testl	%ebx, %ebx
	je	L59
	cmpb	$0, 28(%ebx)
	je	L103
	movzbl	39(%ebx), %eax
L71:
	movsbl	%al, %eax
	movl	$__ZSt4cout, %ecx
	movl	%eax, (%esp)
	call	__ZNSo3putEc
	subl	$4, %esp
	movl	%eax, %ecx
	call	__ZNSo5flushEv
	movl	12(%ebp), %ebx
	movl	$78, 8(%esp)
	movl	$LC18, 4(%esp)
	movl	$__ZSt4cout, (%esp)
	call	__ZSt16__ostream_insertIcSt11char_traitsIcEERSt13basic_ostreamIT_T0_ES6_PKS3_i
	movl	$__ZSt4cout, %ecx
	movl	%ebx, (%esp)
	call	__ZNSolsEi
	subl	$4, %esp
	movl	%eax, (%esp)
	call	__ZSt4endlIcSt11char_traitsIcEERSt13basic_ostreamIT_T0_ES6_
	movl	$78, 8(%esp)
	movl	$LC19, 4(%esp)
	movl	$__ZSt4cout, (%esp)
	call	__ZSt16__ostream_insertIcSt11char_traitsIcEERSt13basic_ostreamIT_T0_ES6_PKS3_i
	movl	$__ZSt4cout, %ecx
	movl	$0, (%esp)
	call	__ZNSolsEi
	subl	$4, %esp
	movl	%eax, (%esp)
	call	__ZSt4endlIcSt11char_traitsIcEERSt13basic_ostreamIT_T0_ES6_
	movl	20(%ebp), %ebx
	movl	$78, 8(%esp)
	movl	$LC20, 4(%esp)
	movl	$__ZSt4cout, (%esp)
	call	__ZSt16__ostream_insertIcSt11char_traitsIcEERSt13basic_ostreamIT_T0_ES6_PKS3_i
	movl	$__ZSt4cout, %ecx
	movl	%ebx, (%esp)
	call	__ZNSolsEi
	subl	$4, %esp
	movl	%eax, (%esp)
	call	__ZSt4endlIcSt11char_traitsIcEERSt13basic_ostreamIT_T0_ES6_
	movl	16(%ebp), %ebx
	movl	$78, 8(%esp)
	movl	$LC21, 4(%esp)
	movl	$__ZSt4cout, (%esp)
	call	__ZSt16__ostream_insertIcSt11char_traitsIcEERSt13basic_ostreamIT_T0_ES6_PKS3_i
	movl	$__ZSt4cout, %ecx
	movl	%ebx, (%esp)
	call	__ZNSolsEi
	movl	%eax, %esi
	movl	(%eax), %eax
	subl	$4, %esp
	movl	-12(%eax), %eax
	movl	124(%esi,%eax), %ebx
	testl	%ebx, %ebx
	je	L59
	cmpb	$0, 28(%ebx)
	je	L72
	movzbl	39(%ebx), %eax
L73:
	movsbl	%al, %eax
	movl	%esi, %ecx
	movl	%eax, (%esp)
	movl	$14, %esi
	call	__ZNSo3putEc
	subl	$4, %esp
	movl	%eax, %ecx
	call	__ZNSo5flushEv
	jmp	L77
	.p2align 4,,7
L105:
	movzbl	39(%ebx), %eax
L75:
	movsbl	%al, %eax
	movl	$__ZSt4cout, %ecx
	movl	%eax, (%esp)
	call	__ZNSo3putEc
	subl	$4, %esp
	movl	%eax, %ecx
	call	__ZNSo5flushEv
	subl	$1, %esi
	je	L104
L77:
	movl	__ZSt4cout, %eax
	movl	-12(%eax), %eax
	movl	__ZSt4cout+124(%eax), %ebx
	testl	%ebx, %ebx
	je	L59
	cmpb	$0, 28(%ebx)
	jne	L105
	movl	%ebx, %ecx
	call	__ZNKSt5ctypeIcE13_M_widen_initEv
	movl	(%ebx), %eax
	movl	%ebx, %ecx
	movl	$10, (%esp)
	call	*24(%eax)
	subl	$4, %esp
	jmp	L75
	.p2align 4,,7
L104:
	movl	$LC7, 8(%ebp)
	leal	-8(%ebp), %esp
	popl	%ebx
	.cfi_remember_state
	.cfi_restore 3
	popl	%esi
	.cfi_restore 6
	popl	%ebp
	.cfi_restore 5
	.cfi_def_cfa 4, 4
	jmp	_system
	.p2align 4,,7
L57:
	.cfi_restore_state
	movl	%ebx, %ecx
	call	__ZNKSt5ctypeIcE13_M_widen_initEv
	movl	(%ebx), %eax
	movl	%ebx, %ecx
	movl	$10, (%esp)
	call	*24(%eax)
	subl	$4, %esp
	jmp	L58
	.p2align 4,,7
L68:
	movl	%ebx, %ecx
	call	__ZNKSt5ctypeIcE13_M_widen_initEv
	movl	(%ebx), %eax
	movl	%ebx, %ecx
	movl	$10, (%esp)
	call	*24(%eax)
	subl	$4, %esp
	jmp	L69
	.p2align 4,,7
L66:
	movl	%ebx, %ecx
	call	__ZNKSt5ctypeIcE13_M_widen_initEv
	movl	(%ebx), %eax
	movl	%ebx, %ecx
	movl	$10, (%esp)
	call	*24(%eax)
	subl	$4, %esp
	jmp	L67
	.p2align 4,,7
L64:
	movl	%ebx, %ecx
	call	__ZNKSt5ctypeIcE13_M_widen_initEv
	movl	(%ebx), %eax
	movl	%ebx, %ecx
	movl	$10, (%esp)
	call	*24(%eax)
	subl	$4, %esp
	jmp	L65
	.p2align 4,,7
L62:
	movl	%ebx, %ecx
	call	__ZNKSt5ctypeIcE13_M_widen_initEv
	movl	(%ebx), %eax
	movl	%ebx, %ecx
	movl	$10, (%esp)
	call	*24(%eax)
	subl	$4, %esp
	jmp	L63
	.p2align 4,,7
L60:
	movl	%ebx, %ecx
	call	__ZNKSt5ctypeIcE13_M_widen_initEv
	movl	(%ebx), %eax
	movl	%ebx, %ecx
	movl	$10, (%esp)
	call	*24(%eax)
	subl	$4, %esp
	jmp	L61
	.p2align 4,,7
L103:
	movl	%ebx, %ecx
	call	__ZNKSt5ctypeIcE13_M_widen_initEv
	movl	(%ebx), %eax
	movl	%ebx, %ecx
	movl	$10, (%esp)
	call	*24(%eax)
	subl	$4, %esp
	jmp	L71
	.p2align 4,,7
L72:
	movl	%ebx, %ecx
	call	__ZNKSt5ctypeIcE13_M_widen_initEv
	movl	(%ebx), %eax
	movl	%ebx, %ecx
	movl	$10, (%esp)
	call	*24(%eax)
	subl	$4, %esp
	jmp	L73
L59:
	call	__ZSt16__throw_bad_castv
	.cfi_endproc
LFE1374:
	.section .rdata,"dr"
	.align 4
LC22:
	.ascii "-------------------------------------------------------------------------------\0"
	.align 4
LC23:
	.ascii "-                                       *                                     -\0"
	.align 4
LC24:
	.ascii "-  \277\255\310\366\264\363\302\275\265\330\315\274                        *                                      -\0"
	.align 4
LC25:
	.ascii "-                                    **                                       -\0"
	.align 4
LC26:
	.ascii "-    ~                          *****                                         -\0"
	.align 4
LC27:
	.ascii "-        ~             ~   *****                                              -\0"
	.align 4
LC28:
	.ascii "-   ~            ~        *     #Godigun       @Phiya                         -\0"
	.align 4
LC29:
	.ascii "-            ~           *                                                    -\0"
	.align 4
LC30:
	.ascii "-        *               *                                                    -\0"
	.align 4
LC31:
	.ascii "-  ~  * *         ~      ********   #Sealidge          / / / / /              -\0"
	.align 4
LC32:
	.ascii "-      ***      ~        *   ~   *                / / / / / / / /             -\0"
	.align 4
LC33:
	.ascii "-       * *     ~       * ~    ~  *            / / / / / / / / / /            -\0"
	.align 4
LC34:
	.ascii "-      *                 ~    ~ ~ *           / / / / / / / / / / /           -\0"
	.align 4
LC35:
	.ascii "-  ~          ~      ~            *            / / / / / / / / / /            -\0"
	.align 4
LC36:
	.ascii "-      ~~         ~      *  ~  ~  *             / / / / / / / /               -\0"
	.align 4
LC37:
	.ascii "-   ~                    ***     *                       / /                  -\0"
	.align 4
LC38:
	.ascii "-        ~     ~         * ******                         /   #Wild City      -\0"
	.align 4
LC39:
	.ascii "-                   ~     *     #Me City                                      -\0"
	.align 4
LC40:
	.ascii "-  @ \312\327\266\274       ~          **                                                 -\0"
	.align 4
LC41:
	.ascii "-  # \272\313\320\304\263\307\312\320         ~      ******              #Ken City                    -\0"
	.align 4
LC42:
	.ascii "-  ~ \272\243           ~      ~         *                                          -\0"
	.align 4
LC43:
	.ascii "-  / \311\263\304\256   ~                        *                                         -\0"
	.align 4
LC44:
	.ascii "-  \277\255\310\366\264\363\302\275\265\330\315\274                        *          [phiya]\312\307[\277\255\310\366\265\333\271\372]\265\304\312\327\266\274\243\254 -\0"
	.align 4
LC45:
	.ascii "-                                    **                  \312\307\325\373\270\366\271\372\274\322\265\304\272\313\320\304\241\243   -\0"
	.align 4
LC46:
	.ascii "- [Godigun]\312\307\322\273\327\371\322\252\310\373\243\254         *****                                         -\0"
	.align 4
LC47:
	.ascii "- \263\307\307\275\316\336\261\310\265\304\274\341\271\314\241\243\271\253\324\252     *****                                              -\0"
	.align 4
LC48:
	.ascii "- \307\260"
	.ascii "168\304\352\265\304[\312\245\325\275]\243\254<\266\361\304\247> *     #Godigun       @Phiya                         -\0"
	.align 4
LC49:
	.ascii "- \310\353\307\326\264\363\302\275\243\254[Godigun] \312\307 *                                                    -\0"
	.align 4
LC50:
	.ascii "- \310\313\300\340\327\356\272\363\265\304\267\300\317\337\243\254\326\256\272\363\324\332 *                     [Sealidge]\312\307[\277\255\310\366\265\333\271\372]\327\356\316\252\267\261\310\331 -\0"
	.align 4
LC51:
	.ascii "- <Ken.Caesar>\265\304\301\354\265\274\317\302\243\254 ********   #Sealidge  \265\304\263\307\312\320\241\243\272\243\321\363\264\370\270\370\325\342\327\371\263\307\312\320\274\253\264\363\265\304 -\0"
	.align 4
LC52:
	.ascii "- \310\313\303\307\322\324[Godigun]\316\252\325\363\265\330\243\254*       *             \262\306\270\273\243\254\265\253\312\261\262\273\312\261\325\342\327\371\263\307\312\320\322\262\273\341\312\334\265\275 -\0"
	.align 4
LC53:
	.ascii "- \263\311\271\246\273\367\315\313<\266\361\304\247>\241\243      *         *            \272\243\300\313\272\315<\266\361\304\247>\265\304\271\245\273\367\241\243           -\0"
	.align 4
LC54:
	.ascii "-                                 *                                           -\0"
	.align 4
LC55:
	.ascii "- [Me City]\324\332[\312\245\325\275]\307\260\312\307           *   [Wild City]\325\375\310\347\306\344\303\373\243\254                   -\0"
	.align 4
LC56:
	.ascii "- \325\373\270\366\264\363\302\275\327\356\264\363\265\304\263\307\312\320\243\254   *        *   \312\307[\277\255\310\366\264\363\302\275]\326\320\327\356\273\354\302\322\265\304\265\330\267\275\241\243            -\0"
	.align 4
LC57:
	.ascii "- \265\253\324\332[\312\245\325\275]\326\320\313\360\312\247\262\322\326\330\243\254 ***     *                                            -\0"
	.align 4
LC58:
	.ascii "- \317\326\324\332\326\273\312\243\317\302\262\320\324\253\266\317\261\332\241\243   * ******                             #Wild City      -\0"
	.align 4
LC59:
	.ascii "-                         *     #Me City                                      -\0"
	.align 4
LC60:
	.ascii "-  @ \312\327\266\274                  **                                                 -\0"
	.align 4
LC61:
	.ascii "-  # \263\307\312\320                    ******              #Ken City                    -\0"
	.align 4
LC62:
	.ascii "-  ~ \272\243                            *     [Ken City]\312\307[\312\245\325\275]\264\363\275\253               -\0"
	.align 4
LC63:
	.ascii "-  / \311\263\304\256                           *        <Ken.Caesar>\265\304\271\312\317\347\241\243             -\0"
	.text
	.p2align 4,,15
	.globl	__Z3Mapv
	.def	__Z3Mapv;	.scl	2;	.type	32;	.endef
__Z3Mapv:
LFB1376:
	.cfi_startproc
	pushl	%ebp
	.cfi_def_cfa_offset 8
	.cfi_offset 5, -8
	movl	%esp, %ebp
	.cfi_def_cfa_register 5
	pushl	%ebx
	subl	$20, %esp
	.cfi_offset 3, -12
	movl	$LC1, (%esp)
	call	_system
	movl	$__ZSt4cout, (%esp)
	call	__ZSt4endlIcSt11char_traitsIcEERSt13basic_ostreamIT_T0_ES6_
	movl	$79, 8(%esp)
	movl	$LC22, 4(%esp)
	movl	$__ZSt4cout, (%esp)
	call	__ZSt16__ostream_insertIcSt11char_traitsIcEERSt13basic_ostreamIT_T0_ES6_PKS3_i
	movl	$__ZSt4cout, (%esp)
	call	__ZSt4endlIcSt11char_traitsIcEERSt13basic_ostreamIT_T0_ES6_
	movl	$79, 8(%esp)
	movl	$LC23, 4(%esp)
	movl	$__ZSt4cout, (%esp)
	call	__ZSt16__ostream_insertIcSt11char_traitsIcEERSt13basic_ostreamIT_T0_ES6_PKS3_i
	movl	$__ZSt4cout, (%esp)
	call	__ZSt4endlIcSt11char_traitsIcEERSt13basic_ostreamIT_T0_ES6_
	movl	$79, 8(%esp)
	movl	$LC24, 4(%esp)
	movl	$__ZSt4cout, (%esp)
	call	__ZSt16__ostream_insertIcSt11char_traitsIcEERSt13basic_ostreamIT_T0_ES6_PKS3_i
	movl	$__ZSt4cout, (%esp)
	call	__ZSt4endlIcSt11char_traitsIcEERSt13basic_ostreamIT_T0_ES6_
	movl	$79, 8(%esp)
	movl	$LC25, 4(%esp)
	movl	$__ZSt4cout, (%esp)
	call	__ZSt16__ostream_insertIcSt11char_traitsIcEERSt13basic_ostreamIT_T0_ES6_PKS3_i
	movl	$__ZSt4cout, (%esp)
	call	__ZSt4endlIcSt11char_traitsIcEERSt13basic_ostreamIT_T0_ES6_
	movl	$79, 8(%esp)
	movl	$LC26, 4(%esp)
	movl	$__ZSt4cout, (%esp)
	call	__ZSt16__ostream_insertIcSt11char_traitsIcEERSt13basic_ostreamIT_T0_ES6_PKS3_i
	movl	$__ZSt4cout, (%esp)
	call	__ZSt4endlIcSt11char_traitsIcEERSt13basic_ostreamIT_T0_ES6_
	movl	$79, 8(%esp)
	movl	$LC27, 4(%esp)
	movl	$__ZSt4cout, (%esp)
	call	__ZSt16__ostream_insertIcSt11char_traitsIcEERSt13basic_ostreamIT_T0_ES6_PKS3_i
	movl	$__ZSt4cout, (%esp)
	call	__ZSt4endlIcSt11char_traitsIcEERSt13basic_ostreamIT_T0_ES6_
	movl	$79, 8(%esp)
	movl	$LC28, 4(%esp)
	movl	$__ZSt4cout, (%esp)
	call	__ZSt16__ostream_insertIcSt11char_traitsIcEERSt13basic_ostreamIT_T0_ES6_PKS3_i
	movl	$__ZSt4cout, (%esp)
	call	__ZSt4endlIcSt11char_traitsIcEERSt13basic_ostreamIT_T0_ES6_
	movl	$79, 8(%esp)
	movl	$LC29, 4(%esp)
	movl	$__ZSt4cout, (%esp)
	call	__ZSt16__ostream_insertIcSt11char_traitsIcEERSt13basic_ostreamIT_T0_ES6_PKS3_i
	movl	$__ZSt4cout, (%esp)
	call	__ZSt4endlIcSt11char_traitsIcEERSt13basic_ostreamIT_T0_ES6_
	movl	$79, 8(%esp)
	movl	$LC30, 4(%esp)
	movl	$__ZSt4cout, (%esp)
	call	__ZSt16__ostream_insertIcSt11char_traitsIcEERSt13basic_ostreamIT_T0_ES6_PKS3_i
	movl	$__ZSt4cout, (%esp)
	call	__ZSt4endlIcSt11char_traitsIcEERSt13basic_ostreamIT_T0_ES6_
	movl	$79, 8(%esp)
	movl	$LC31, 4(%esp)
	movl	$__ZSt4cout, (%esp)
	call	__ZSt16__ostream_insertIcSt11char_traitsIcEERSt13basic_ostreamIT_T0_ES6_PKS3_i
	movl	$__ZSt4cout, (%esp)
	call	__ZSt4endlIcSt11char_traitsIcEERSt13basic_ostreamIT_T0_ES6_
	movl	$79, 8(%esp)
	movl	$LC32, 4(%esp)
	movl	$__ZSt4cout, (%esp)
	call	__ZSt16__ostream_insertIcSt11char_traitsIcEERSt13basic_ostreamIT_T0_ES6_PKS3_i
	movl	$__ZSt4cout, (%esp)
	call	__ZSt4endlIcSt11char_traitsIcEERSt13basic_ostreamIT_T0_ES6_
	movl	$79, 8(%esp)
	movl	$LC33, 4(%esp)
	movl	$__ZSt4cout, (%esp)
	call	__ZSt16__ostream_insertIcSt11char_traitsIcEERSt13basic_ostreamIT_T0_ES6_PKS3_i
	movl	$__ZSt4cout, (%esp)
	call	__ZSt4endlIcSt11char_traitsIcEERSt13basic_ostreamIT_T0_ES6_
	movl	$79, 8(%esp)
	movl	$LC34, 4(%esp)
	movl	$__ZSt4cout, (%esp)
	call	__ZSt16__ostream_insertIcSt11char_traitsIcEERSt13basic_ostreamIT_T0_ES6_PKS3_i
	movl	$__ZSt4cout, (%esp)
	call	__ZSt4endlIcSt11char_traitsIcEERSt13basic_ostreamIT_T0_ES6_
	movl	$79, 8(%esp)
	movl	$LC35, 4(%esp)
	movl	$__ZSt4cout, (%esp)
	call	__ZSt16__ostream_insertIcSt11char_traitsIcEERSt13basic_ostreamIT_T0_ES6_PKS3_i
	movl	$__ZSt4cout, (%esp)
	call	__ZSt4endlIcSt11char_traitsIcEERSt13basic_ostreamIT_T0_ES6_
	movl	$79, 8(%esp)
	movl	$LC36, 4(%esp)
	movl	$__ZSt4cout, (%esp)
	call	__ZSt16__ostream_insertIcSt11char_traitsIcEERSt13basic_ostreamIT_T0_ES6_PKS3_i
	movl	$__ZSt4cout, (%esp)
	call	__ZSt4endlIcSt11char_traitsIcEERSt13basic_ostreamIT_T0_ES6_
	movl	$79, 8(%esp)
	movl	$LC37, 4(%esp)
	movl	$__ZSt4cout, (%esp)
	call	__ZSt16__ostream_insertIcSt11char_traitsIcEERSt13basic_ostreamIT_T0_ES6_PKS3_i
	movl	$__ZSt4cout, (%esp)
	call	__ZSt4endlIcSt11char_traitsIcEERSt13basic_ostreamIT_T0_ES6_
	movl	$79, 8(%esp)
	movl	$LC38, 4(%esp)
	movl	$__ZSt4cout, (%esp)
	call	__ZSt16__ostream_insertIcSt11char_traitsIcEERSt13basic_ostreamIT_T0_ES6_PKS3_i
	movl	$__ZSt4cout, (%esp)
	call	__ZSt4endlIcSt11char_traitsIcEERSt13basic_ostreamIT_T0_ES6_
	movl	$79, 8(%esp)
	movl	$LC39, 4(%esp)
	movl	$__ZSt4cout, (%esp)
	call	__ZSt16__ostream_insertIcSt11char_traitsIcEERSt13basic_ostreamIT_T0_ES6_PKS3_i
	movl	$__ZSt4cout, (%esp)
	call	__ZSt4endlIcSt11char_traitsIcEERSt13basic_ostreamIT_T0_ES6_
	movl	$79, 8(%esp)
	movl	$LC40, 4(%esp)
	movl	$__ZSt4cout, (%esp)
	call	__ZSt16__ostream_insertIcSt11char_traitsIcEERSt13basic_ostreamIT_T0_ES6_PKS3_i
	movl	$__ZSt4cout, (%esp)
	call	__ZSt4endlIcSt11char_traitsIcEERSt13basic_ostreamIT_T0_ES6_
	movl	$79, 8(%esp)
	movl	$LC41, 4(%esp)
	movl	$__ZSt4cout, (%esp)
	call	__ZSt16__ostream_insertIcSt11char_traitsIcEERSt13basic_ostreamIT_T0_ES6_PKS3_i
	movl	$__ZSt4cout, (%esp)
	call	__ZSt4endlIcSt11char_traitsIcEERSt13basic_ostreamIT_T0_ES6_
	movl	$79, 8(%esp)
	movl	$LC42, 4(%esp)
	movl	$__ZSt4cout, (%esp)
	call	__ZSt16__ostream_insertIcSt11char_traitsIcEERSt13basic_ostreamIT_T0_ES6_PKS3_i
	movl	$__ZSt4cout, (%esp)
	call	__ZSt4endlIcSt11char_traitsIcEERSt13basic_ostreamIT_T0_ES6_
	movl	$80, 8(%esp)
	movl	$LC43, 4(%esp)
	movl	$__ZSt4cout, (%esp)
	call	__ZSt16__ostream_insertIcSt11char_traitsIcEERSt13basic_ostreamIT_T0_ES6_PKS3_i
	movl	$__ZSt4cout, (%esp)
	call	__ZSt4endlIcSt11char_traitsIcEERSt13basic_ostreamIT_T0_ES6_
	movl	$79, 8(%esp)
	movl	$LC22, 4(%esp)
	movl	$__ZSt4cout, (%esp)
	call	__ZSt16__ostream_insertIcSt11char_traitsIcEERSt13basic_ostreamIT_T0_ES6_PKS3_i
	movl	$__ZSt4cout, (%esp)
	call	__ZSt4endlIcSt11char_traitsIcEERSt13basic_ostreamIT_T0_ES6_
	movl	$LC7, (%esp)
	call	_system
	movl	$LC1, (%esp)
	call	_system
	movl	$__ZSt4cout, (%esp)
	call	__ZSt4endlIcSt11char_traitsIcEERSt13basic_ostreamIT_T0_ES6_
	movl	$79, 8(%esp)
	movl	$LC22, 4(%esp)
	movl	$__ZSt4cout, (%esp)
	call	__ZSt16__ostream_insertIcSt11char_traitsIcEERSt13basic_ostreamIT_T0_ES6_PKS3_i
	movl	$__ZSt4cout, (%esp)
	call	__ZSt4endlIcSt11char_traitsIcEERSt13basic_ostreamIT_T0_ES6_
	movl	$79, 8(%esp)
	movl	$LC23, 4(%esp)
	movl	$__ZSt4cout, (%esp)
	call	__ZSt16__ostream_insertIcSt11char_traitsIcEERSt13basic_ostreamIT_T0_ES6_PKS3_i
	movl	$__ZSt4cout, (%esp)
	call	__ZSt4endlIcSt11char_traitsIcEERSt13basic_ostreamIT_T0_ES6_
	movl	$79, 8(%esp)
	movl	$LC44, 4(%esp)
	movl	$__ZSt4cout, (%esp)
	call	__ZSt16__ostream_insertIcSt11char_traitsIcEERSt13basic_ostreamIT_T0_ES6_PKS3_i
	movl	$__ZSt4cout, (%esp)
	call	__ZSt4endlIcSt11char_traitsIcEERSt13basic_ostreamIT_T0_ES6_
	movl	$79, 8(%esp)
	movl	$LC45, 4(%esp)
	movl	$__ZSt4cout, (%esp)
	call	__ZSt16__ostream_insertIcSt11char_traitsIcEERSt13basic_ostreamIT_T0_ES6_PKS3_i
	movl	$__ZSt4cout, (%esp)
	call	__ZSt4endlIcSt11char_traitsIcEERSt13basic_ostreamIT_T0_ES6_
	movl	$79, 8(%esp)
	movl	$LC46, 4(%esp)
	movl	$__ZSt4cout, (%esp)
	call	__ZSt16__ostream_insertIcSt11char_traitsIcEERSt13basic_ostreamIT_T0_ES6_PKS3_i
	movl	$__ZSt4cout, (%esp)
	call	__ZSt4endlIcSt11char_traitsIcEERSt13basic_ostreamIT_T0_ES6_
	movl	$79, 8(%esp)
	movl	$LC47, 4(%esp)
	movl	$__ZSt4cout, (%esp)
	call	__ZSt16__ostream_insertIcSt11char_traitsIcEERSt13basic_ostreamIT_T0_ES6_PKS3_i
	movl	__ZSt4cout, %eax
	movl	-12(%eax), %eax
	movl	__ZSt4cout+124(%eax), %ebx
	testl	%ebx, %ebx
	je	L110
	cmpb	$0, 28(%ebx)
	je	L108
	movzbl	39(%ebx), %eax
L109:
	movsbl	%al, %eax
	movl	$__ZSt4cout, %ecx
	movl	%eax, (%esp)
	call	__ZNSo3putEc
	subl	$4, %esp
	movl	%eax, %ecx
	call	__ZNSo5flushEv
	movl	$79, 8(%esp)
	movl	$LC48, 4(%esp)
	movl	$__ZSt4cout, (%esp)
	call	__ZSt16__ostream_insertIcSt11char_traitsIcEERSt13basic_ostreamIT_T0_ES6_PKS3_i
	movl	$__ZSt4cout, (%esp)
	call	__ZSt4endlIcSt11char_traitsIcEERSt13basic_ostreamIT_T0_ES6_
	movl	$79, 8(%esp)
	movl	$LC49, 4(%esp)
	movl	$__ZSt4cout, (%esp)
	call	__ZSt16__ostream_insertIcSt11char_traitsIcEERSt13basic_ostreamIT_T0_ES6_PKS3_i
	movl	$__ZSt4cout, (%esp)
	call	__ZSt4endlIcSt11char_traitsIcEERSt13basic_ostreamIT_T0_ES6_
	movl	$79, 8(%esp)
	movl	$LC50, 4(%esp)
	movl	$__ZSt4cout, (%esp)
	call	__ZSt16__ostream_insertIcSt11char_traitsIcEERSt13basic_ostreamIT_T0_ES6_PKS3_i
	movl	$__ZSt4cout, (%esp)
	call	__ZSt4endlIcSt11char_traitsIcEERSt13basic_ostreamIT_T0_ES6_
	movl	$79, 8(%esp)
	movl	$LC51, 4(%esp)
	movl	$__ZSt4cout, (%esp)
	call	__ZSt16__ostream_insertIcSt11char_traitsIcEERSt13basic_ostreamIT_T0_ES6_PKS3_i
	movl	$__ZSt4cout, (%esp)
	call	__ZSt4endlIcSt11char_traitsIcEERSt13basic_ostreamIT_T0_ES6_
	movl	$79, 8(%esp)
	movl	$LC52, 4(%esp)
	movl	$__ZSt4cout, (%esp)
	call	__ZSt16__ostream_insertIcSt11char_traitsIcEERSt13basic_ostreamIT_T0_ES6_PKS3_i
	movl	$__ZSt4cout, (%esp)
	call	__ZSt4endlIcSt11char_traitsIcEERSt13basic_ostreamIT_T0_ES6_
	movl	$79, 8(%esp)
	movl	$LC53, 4(%esp)
	movl	$__ZSt4cout, (%esp)
	call	__ZSt16__ostream_insertIcSt11char_traitsIcEERSt13basic_ostreamIT_T0_ES6_PKS3_i
	movl	$__ZSt4cout, (%esp)
	call	__ZSt4endlIcSt11char_traitsIcEERSt13basic_ostreamIT_T0_ES6_
	movl	$79, 8(%esp)
	movl	$LC54, 4(%esp)
	movl	$__ZSt4cout, (%esp)
	call	__ZSt16__ostream_insertIcSt11char_traitsIcEERSt13basic_ostreamIT_T0_ES6_PKS3_i
	movl	$__ZSt4cout, (%esp)
	call	__ZSt4endlIcSt11char_traitsIcEERSt13basic_ostreamIT_T0_ES6_
	movl	$79, 8(%esp)
	movl	$LC55, 4(%esp)
	movl	$__ZSt4cout, (%esp)
	call	__ZSt16__ostream_insertIcSt11char_traitsIcEERSt13basic_ostreamIT_T0_ES6_PKS3_i
	movl	__ZSt4cout, %eax
	movl	-12(%eax), %eax
	movl	__ZSt4cout+124(%eax), %ebx
	testl	%ebx, %ebx
	je	L110
	cmpb	$0, 28(%ebx)
	je	L111
	movzbl	39(%ebx), %eax
L112:
	movsbl	%al, %eax
	movl	$__ZSt4cout, %ecx
	movl	%eax, (%esp)
	call	__ZNSo3putEc
	subl	$4, %esp
	movl	%eax, %ecx
	call	__ZNSo5flushEv
	movl	$79, 8(%esp)
	movl	$LC56, 4(%esp)
	movl	$__ZSt4cout, (%esp)
	call	__ZSt16__ostream_insertIcSt11char_traitsIcEERSt13basic_ostreamIT_T0_ES6_PKS3_i
	movl	$__ZSt4cout, (%esp)
	call	__ZSt4endlIcSt11char_traitsIcEERSt13basic_ostreamIT_T0_ES6_
	movl	$79, 8(%esp)
	movl	$LC57, 4(%esp)
	movl	$__ZSt4cout, (%esp)
	call	__ZSt16__ostream_insertIcSt11char_traitsIcEERSt13basic_ostreamIT_T0_ES6_PKS3_i
	movl	$__ZSt4cout, (%esp)
	call	__ZSt4endlIcSt11char_traitsIcEERSt13basic_ostreamIT_T0_ES6_
	movl	$79, 8(%esp)
	movl	$LC58, 4(%esp)
	movl	$__ZSt4cout, (%esp)
	call	__ZSt16__ostream_insertIcSt11char_traitsIcEERSt13basic_ostreamIT_T0_ES6_PKS3_i
	movl	$__ZSt4cout, (%esp)
	call	__ZSt4endlIcSt11char_traitsIcEERSt13basic_ostreamIT_T0_ES6_
	movl	$79, 8(%esp)
	movl	$LC59, 4(%esp)
	movl	$__ZSt4cout, (%esp)
	call	__ZSt16__ostream_insertIcSt11char_traitsIcEERSt13basic_ostreamIT_T0_ES6_PKS3_i
	movl	$__ZSt4cout, (%esp)
	call	__ZSt4endlIcSt11char_traitsIcEERSt13basic_ostreamIT_T0_ES6_
	movl	$79, 8(%esp)
	movl	$LC60, 4(%esp)
	movl	$__ZSt4cout, (%esp)
	call	__ZSt16__ostream_insertIcSt11char_traitsIcEERSt13basic_ostreamIT_T0_ES6_PKS3_i
	movl	$__ZSt4cout, (%esp)
	call	__ZSt4endlIcSt11char_traitsIcEERSt13basic_ostreamIT_T0_ES6_
	movl	$79, 8(%esp)
	movl	$LC61, 4(%esp)
	movl	$__ZSt4cout, (%esp)
	call	__ZSt16__ostream_insertIcSt11char_traitsIcEERSt13basic_ostreamIT_T0_ES6_PKS3_i
	movl	$__ZSt4cout, (%esp)
	call	__ZSt4endlIcSt11char_traitsIcEERSt13basic_ostreamIT_T0_ES6_
	movl	$79, 8(%esp)
	movl	$LC62, 4(%esp)
	movl	$__ZSt4cout, (%esp)
	call	__ZSt16__ostream_insertIcSt11char_traitsIcEERSt13basic_ostreamIT_T0_ES6_PKS3_i
	movl	$__ZSt4cout, (%esp)
	call	__ZSt4endlIcSt11char_traitsIcEERSt13basic_ostreamIT_T0_ES6_
	movl	$79, 8(%esp)
	movl	$LC63, 4(%esp)
	movl	$__ZSt4cout, (%esp)
	call	__ZSt16__ostream_insertIcSt11char_traitsIcEERSt13basic_ostreamIT_T0_ES6_PKS3_i
	movl	__ZSt4cout, %eax
	movl	-12(%eax), %eax
	movl	__ZSt4cout+124(%eax), %ebx
	testl	%ebx, %ebx
	je	L110
	cmpb	$0, 28(%ebx)
	je	L113
	movzbl	39(%ebx), %eax
L114:
	movsbl	%al, %eax
	movl	$__ZSt4cout, %ecx
	movl	%eax, (%esp)
	call	__ZNSo3putEc
	subl	$4, %esp
	movl	%eax, %ecx
	call	__ZNSo5flushEv
	movl	$79, 8(%esp)
	movl	$LC22, 4(%esp)
	movl	$__ZSt4cout, (%esp)
	call	__ZSt16__ostream_insertIcSt11char_traitsIcEERSt13basic_ostreamIT_T0_ES6_PKS3_i
	movl	__ZSt4cout, %eax
	movl	-12(%eax), %eax
	movl	__ZSt4cout+124(%eax), %ebx
	testl	%ebx, %ebx
	je	L110
	cmpb	$0, 28(%ebx)
	je	L115
	movzbl	39(%ebx), %eax
L116:
	movsbl	%al, %eax
	movl	$__ZSt4cout, %ecx
	movl	%eax, (%esp)
	call	__ZNSo3putEc
	subl	$4, %esp
	movl	%eax, %ecx
	call	__ZNSo5flushEv
	movl	$LC7, (%esp)
	call	_system
	movl	-4(%ebp), %ebx
	leave
	.cfi_remember_state
	.cfi_restore 5
	.cfi_restore 3
	.cfi_def_cfa 4, 4
	ret
	.p2align 4,,7
L108:
	.cfi_restore_state
	movl	%ebx, %ecx
	call	__ZNKSt5ctypeIcE13_M_widen_initEv
	movl	(%ebx), %eax
	movl	%ebx, %ecx
	movl	$10, (%esp)
	call	*24(%eax)
	subl	$4, %esp
	jmp	L109
	.p2align 4,,7
L113:
	movl	%ebx, %ecx
	call	__ZNKSt5ctypeIcE13_M_widen_initEv
	movl	(%ebx), %eax
	movl	%ebx, %ecx
	movl	$10, (%esp)
	call	*24(%eax)
	subl	$4, %esp
	jmp	L114
	.p2align 4,,7
L111:
	movl	%ebx, %ecx
	call	__ZNKSt5ctypeIcE13_M_widen_initEv
	movl	(%ebx), %eax
	movl	%ebx, %ecx
	movl	$10, (%esp)
	call	*24(%eax)
	subl	$4, %esp
	jmp	L112
	.p2align 4,,7
L115:
	movl	%ebx, %ecx
	call	__ZNKSt5ctypeIcE13_M_widen_initEv
	movl	(%ebx), %eax
	movl	%ebx, %ecx
	movl	$10, (%esp)
	call	*24(%eax)
	subl	$4, %esp
	jmp	L116
L110:
	call	__ZSt16__throw_bad_castv
	.cfi_endproc
LFE1376:
	.section .rdata,"dr"
	.align 4
LC64:
	.ascii "-                                    \326\306\327\367\327\351                                   -\0"
	.align 4
LC65:
	.ascii "-                                   MS Studio                                 -\0"
	.align 4
LC66:
	.ascii "-                                  \312\327\317\257\263\314\320\362\324\261                                 -\0"
	.align 4
LC67:
	.ascii "-                                 MS.YXH_XianYu                               -\0"
	.align 4
LC68:
	.ascii "-                                  \266\257\273\255\273\346\326\306\324\261                                 -\0"
	.align 4
LC69:
	.ascii "-                                     \327\334\274\340                                    -\0"
	.align 4
LC70:
	.ascii "-                                     \303\371\320\273                                    -\0"
	.align 4
LC71:
	.ascii "-                                 MS.DWTornier                                -\0"
	.align 4
LC72:
	.ascii "-                                  MS.BlueCat                                 -\0"
	.align 4
LC73:
	.ascii "-                                 MS.IceLocke                                 -\0"
	.align 4
LC74:
	.ascii "-                                MS.DrivenHank                                -\0"
	.align 4
LC75:
	.ascii "-                                      CC                                     -\0"
	.align 4
LC76:
	.ascii "-                    (\317\353\275\370\310\353\264\313\303\373\265\245\243\277AI\275\343\275\343\265\304QQ:2258488076)                    -\0"
LC77:
	.ascii "                        \0"
LC78:
	.ascii "**************\0"
LC79:
	.ascii "   \0"
LC80:
	.ascii "***************\0"
LC81:
	.ascii "-                       \0"
LC82:
	.ascii "***\0"
LC83:
	.ascii "                      \0"
LC84:
	.ascii "*******\0"
LC85:
	.ascii "                   \0"
LC86:
	.ascii "****\0"
LC87:
	.ascii "                 \0"
LC88:
	.ascii "     \0"
LC89:
	.ascii "          \0"
LC90:
	.ascii "         \0"
LC91:
	.ascii "        \0"
LC92:
	.ascii "***********\0"
LC93:
	.ascii "       \0"
LC94:
	.ascii "*************\0"
LC95:
	.ascii "      \0"
LC96:
	.ascii "  \0"
LC97:
	.ascii "********\0"
LC98:
	.ascii "    \0"
LC99:
	.ascii "-                      \0"
LC100:
	.ascii "**\0"
LC101:
	.ascii "color f5\0"
	.text
	.p2align 4,,15
	.globl	__Z10Maker_Listv
	.def	__Z10Maker_Listv;	.scl	2;	.type	32;	.endef
__Z10Maker_Listv:
LFB1377:
	.cfi_startproc
	pushl	%ebp
	.cfi_def_cfa_offset 8
	.cfi_offset 5, -8
	movl	%esp, %ebp
	.cfi_def_cfa_register 5
	pushl	%esi
	.cfi_offset 6, -12
	movl	$30, %esi
	pushl	%ebx
	subl	$16, %esp
	.cfi_offset 3, -16
	movl	$LC1, (%esp)
	call	_system
	jmp	L132
	.p2align 4,,7
L152:
	movzbl	39(%ebx), %eax
L130:
	movsbl	%al, %eax
	movl	$__ZSt4cout, %ecx
	movl	%eax, (%esp)
	call	__ZNSo3putEc
	subl	$4, %esp
	movl	%eax, %ecx
	call	__ZNSo5flushEv
	subl	$1, %esi
	je	L151
L132:
	movl	__ZSt4cout, %eax
	movl	-12(%eax), %eax
	movl	__ZSt4cout+124(%eax), %ebx
	testl	%ebx, %ebx
	je	L134
	cmpb	$0, 28(%ebx)
	jne	L152
	movl	%ebx, %ecx
	call	__ZNKSt5ctypeIcE13_M_widen_initEv
	movl	(%ebx), %eax
	movl	%ebx, %ecx
	movl	$10, (%esp)
	call	*24(%eax)
	subl	$4, %esp
	jmp	L130
	.p2align 4,,7
L151:
	movl	$79, 8(%esp)
	movl	$5, %esi
	movl	$LC64, 4(%esp)
	movl	$__ZSt4cout, (%esp)
	call	__ZSt16__ostream_insertIcSt11char_traitsIcEERSt13basic_ostreamIT_T0_ES6_PKS3_i
	movl	$__ZSt4cout, (%esp)
	call	__ZSt4endlIcSt11char_traitsIcEERSt13basic_ostreamIT_T0_ES6_
	movl	$250, (%esp)
	call	_Sleep@4
	subl	$4, %esp
	movl	$79, 8(%esp)
	movl	$LC65, 4(%esp)
	movl	$__ZSt4cout, (%esp)
	call	__ZSt16__ostream_insertIcSt11char_traitsIcEERSt13basic_ostreamIT_T0_ES6_PKS3_i
	movl	$__ZSt4cout, (%esp)
	call	__ZSt4endlIcSt11char_traitsIcEERSt13basic_ostreamIT_T0_ES6_
	movl	$250, (%esp)
	call	_Sleep@4
	subl	$4, %esp
	movl	$__ZSt4cout, (%esp)
	call	__ZSt4endlIcSt11char_traitsIcEERSt13basic_ostreamIT_T0_ES6_
	movl	$250, (%esp)
	call	_Sleep@4
	subl	$4, %esp
	movl	$79, 8(%esp)
	movl	$LC66, 4(%esp)
	movl	$__ZSt4cout, (%esp)
	call	__ZSt16__ostream_insertIcSt11char_traitsIcEERSt13basic_ostreamIT_T0_ES6_PKS3_i
	movl	$__ZSt4cout, (%esp)
	call	__ZSt4endlIcSt11char_traitsIcEERSt13basic_ostreamIT_T0_ES6_
	movl	$250, (%esp)
	call	_Sleep@4
	subl	$4, %esp
	movl	$79, 8(%esp)
	movl	$LC67, 4(%esp)
	movl	$__ZSt4cout, (%esp)
	call	__ZSt16__ostream_insertIcSt11char_traitsIcEERSt13basic_ostreamIT_T0_ES6_PKS3_i
	movl	$__ZSt4cout, (%esp)
	call	__ZSt4endlIcSt11char_traitsIcEERSt13basic_ostreamIT_T0_ES6_
	movl	$250, (%esp)
	call	_Sleep@4
	subl	$4, %esp
	movl	$__ZSt4cout, (%esp)
	call	__ZSt4endlIcSt11char_traitsIcEERSt13basic_ostreamIT_T0_ES6_
	movl	$250, (%esp)
	call	_Sleep@4
	subl	$4, %esp
	movl	$79, 8(%esp)
	movl	$LC68, 4(%esp)
	movl	$__ZSt4cout, (%esp)
	call	__ZSt16__ostream_insertIcSt11char_traitsIcEERSt13basic_ostreamIT_T0_ES6_PKS3_i
	movl	$__ZSt4cout, (%esp)
	call	__ZSt4endlIcSt11char_traitsIcEERSt13basic_ostreamIT_T0_ES6_
	movl	$250, (%esp)
	call	_Sleep@4
	subl	$4, %esp
	movl	$79, 8(%esp)
	movl	$LC67, 4(%esp)
	movl	$__ZSt4cout, (%esp)
	call	__ZSt16__ostream_insertIcSt11char_traitsIcEERSt13basic_ostreamIT_T0_ES6_PKS3_i
	movl	$__ZSt4cout, (%esp)
	call	__ZSt4endlIcSt11char_traitsIcEERSt13basic_ostreamIT_T0_ES6_
	movl	$250, (%esp)
	call	_Sleep@4
	subl	$4, %esp
	movl	$__ZSt4cout, (%esp)
	call	__ZSt4endlIcSt11char_traitsIcEERSt13basic_ostreamIT_T0_ES6_
	movl	$250, (%esp)
	call	_Sleep@4
	subl	$4, %esp
	movl	$79, 8(%esp)
	movl	$LC69, 4(%esp)
	movl	$__ZSt4cout, (%esp)
	call	__ZSt16__ostream_insertIcSt11char_traitsIcEERSt13basic_ostreamIT_T0_ES6_PKS3_i
	movl	$__ZSt4cout, (%esp)
	call	__ZSt4endlIcSt11char_traitsIcEERSt13basic_ostreamIT_T0_ES6_
	movl	$250, (%esp)
	call	_Sleep@4
	subl	$4, %esp
	movl	$79, 8(%esp)
	movl	$LC67, 4(%esp)
	movl	$__ZSt4cout, (%esp)
	call	__ZSt16__ostream_insertIcSt11char_traitsIcEERSt13basic_ostreamIT_T0_ES6_PKS3_i
	movl	$__ZSt4cout, (%esp)
	call	__ZSt4endlIcSt11char_traitsIcEERSt13basic_ostreamIT_T0_ES6_
	movl	$250, (%esp)
	call	_Sleep@4
	subl	$4, %esp
	movl	$__ZSt4cout, (%esp)
	call	__ZSt4endlIcSt11char_traitsIcEERSt13basic_ostreamIT_T0_ES6_
	movl	$250, (%esp)
	call	_Sleep@4
	subl	$4, %esp
	movl	$79, 8(%esp)
	movl	$LC70, 4(%esp)
	movl	$__ZSt4cout, (%esp)
	call	__ZSt16__ostream_insertIcSt11char_traitsIcEERSt13basic_ostreamIT_T0_ES6_PKS3_i
	movl	$__ZSt4cout, (%esp)
	call	__ZSt4endlIcSt11char_traitsIcEERSt13basic_ostreamIT_T0_ES6_
	movl	$250, (%esp)
	call	_Sleep@4
	subl	$4, %esp
	movl	$79, 8(%esp)
	movl	$LC71, 4(%esp)
	movl	$__ZSt4cout, (%esp)
	call	__ZSt16__ostream_insertIcSt11char_traitsIcEERSt13basic_ostreamIT_T0_ES6_PKS3_i
	movl	$__ZSt4cout, (%esp)
	call	__ZSt4endlIcSt11char_traitsIcEERSt13basic_ostreamIT_T0_ES6_
	movl	$250, (%esp)
	call	_Sleep@4
	subl	$4, %esp
	movl	$79, 8(%esp)
	movl	$LC72, 4(%esp)
	movl	$__ZSt4cout, (%esp)
	call	__ZSt16__ostream_insertIcSt11char_traitsIcEERSt13basic_ostreamIT_T0_ES6_PKS3_i
	movl	$__ZSt4cout, (%esp)
	call	__ZSt4endlIcSt11char_traitsIcEERSt13basic_ostreamIT_T0_ES6_
	movl	$250, (%esp)
	call	_Sleep@4
	subl	$4, %esp
	movl	$79, 8(%esp)
	movl	$LC73, 4(%esp)
	movl	$__ZSt4cout, (%esp)
	call	__ZSt16__ostream_insertIcSt11char_traitsIcEERSt13basic_ostreamIT_T0_ES6_PKS3_i
	movl	$__ZSt4cout, (%esp)
	call	__ZSt4endlIcSt11char_traitsIcEERSt13basic_ostreamIT_T0_ES6_
	movl	$250, (%esp)
	call	_Sleep@4
	subl	$4, %esp
	movl	$79, 8(%esp)
	movl	$LC74, 4(%esp)
	movl	$__ZSt4cout, (%esp)
	call	__ZSt16__ostream_insertIcSt11char_traitsIcEERSt13basic_ostreamIT_T0_ES6_PKS3_i
	movl	$__ZSt4cout, (%esp)
	call	__ZSt4endlIcSt11char_traitsIcEERSt13basic_ostreamIT_T0_ES6_
	movl	$250, (%esp)
	call	_Sleep@4
	subl	$4, %esp
	movl	$79, 8(%esp)
	movl	$LC75, 4(%esp)
	movl	$__ZSt4cout, (%esp)
	call	__ZSt16__ostream_insertIcSt11char_traitsIcEERSt13basic_ostreamIT_T0_ES6_PKS3_i
	movl	$__ZSt4cout, (%esp)
	call	__ZSt4endlIcSt11char_traitsIcEERSt13basic_ostreamIT_T0_ES6_
	movl	$250, (%esp)
	call	_Sleep@4
	subl	$4, %esp
	movl	$79, 8(%esp)
	movl	$LC76, 4(%esp)
	movl	$__ZSt4cout, (%esp)
	call	__ZSt16__ostream_insertIcSt11char_traitsIcEERSt13basic_ostreamIT_T0_ES6_PKS3_i
	movl	$__ZSt4cout, (%esp)
	call	__ZSt4endlIcSt11char_traitsIcEERSt13basic_ostreamIT_T0_ES6_
	movl	$250, (%esp)
	call	_Sleep@4
	subl	$4, %esp
L133:
	movl	__ZSt4cout, %eax
	movl	-12(%eax), %eax
	movl	__ZSt4cout+124(%eax), %ebx
	testl	%ebx, %ebx
	je	L134
	cmpb	$0, 28(%ebx)
	je	L153
	movzbl	39(%ebx), %eax
L136:
	movsbl	%al, %eax
	movl	$__ZSt4cout, %ecx
	movl	%eax, (%esp)
	call	__ZNSo3putEc
	subl	$4, %esp
	movl	%eax, %ecx
	call	__ZNSo5flushEv
	movl	$250, (%esp)
	call	_Sleep@4
	subl	$4, %esp
	subl	$1, %esi
	jne	L133
	movl	$__ZSt4cout, (%esp)
	movl	$3, %ebx
	call	__ZSt4endlIcSt11char_traitsIcEERSt13basic_ostreamIT_T0_ES6_
	movl	$250, (%esp)
	call	_Sleep@4
	subl	$4, %esp
	movl	$24, 8(%esp)
	movl	$LC77, 4(%esp)
	movl	$__ZSt4cout, (%esp)
	call	__ZSt16__ostream_insertIcSt11char_traitsIcEERSt13basic_ostreamIT_T0_ES6_PKS3_i
	movl	$1, 4(%esp)
	movl	$1, (%esp)
	call	__Z9Color_Setii
	movl	$14, 8(%esp)
	movl	$LC78, 4(%esp)
	movl	$__ZSt4cout, (%esp)
	call	__ZSt16__ostream_insertIcSt11char_traitsIcEERSt13basic_ostreamIT_T0_ES6_PKS3_i
	movl	$16, 4(%esp)
	movl	$16, (%esp)
	call	__Z9Color_Setii
	movl	$3, 8(%esp)
	movl	$LC79, 4(%esp)
	movl	$__ZSt4cout, (%esp)
	call	__ZSt16__ostream_insertIcSt11char_traitsIcEERSt13basic_ostreamIT_T0_ES6_PKS3_i
	movl	$4, 4(%esp)
	movl	$4, (%esp)
	call	__Z9Color_Setii
	movl	$15, 8(%esp)
	movl	$LC80, 4(%esp)
	movl	$__ZSt4cout, (%esp)
	call	__ZSt16__ostream_insertIcSt11char_traitsIcEERSt13basic_ostreamIT_T0_ES6_PKS3_i
	movl	$16, 4(%esp)
	movl	$16, (%esp)
	call	__Z9Color_Setii
	movl	$__ZSt4cout, (%esp)
	call	__ZSt4endlIcSt11char_traitsIcEERSt13basic_ostreamIT_T0_ES6_
	movl	$250, (%esp)
	call	_Sleep@4
	subl	$4, %esp
	movl	$24, 8(%esp)
	movl	$LC81, 4(%esp)
	movl	$__ZSt4cout, (%esp)
	call	__ZSt16__ostream_insertIcSt11char_traitsIcEERSt13basic_ostreamIT_T0_ES6_PKS3_i
	movl	$1, 4(%esp)
	movl	$1, (%esp)
	call	__Z9Color_Setii
	movl	$14, 8(%esp)
	movl	$LC78, 4(%esp)
	movl	$__ZSt4cout, (%esp)
	call	__ZSt16__ostream_insertIcSt11char_traitsIcEERSt13basic_ostreamIT_T0_ES6_PKS3_i
	movl	$16, 4(%esp)
	movl	$16, (%esp)
	call	__Z9Color_Setii
	movl	$3, 8(%esp)
	movl	$LC79, 4(%esp)
	movl	$__ZSt4cout, (%esp)
	call	__ZSt16__ostream_insertIcSt11char_traitsIcEERSt13basic_ostreamIT_T0_ES6_PKS3_i
	movl	$4, 4(%esp)
	movl	$4, (%esp)
	call	__Z9Color_Setii
	movl	$15, 8(%esp)
	movl	$LC80, 4(%esp)
	movl	$__ZSt4cout, (%esp)
	call	__ZSt16__ostream_insertIcSt11char_traitsIcEERSt13basic_ostreamIT_T0_ES6_PKS3_i
	movl	$16, 4(%esp)
	movl	$16, (%esp)
	call	__Z9Color_Setii
	movl	$__ZSt4cout, (%esp)
	call	__ZSt4endlIcSt11char_traitsIcEERSt13basic_ostreamIT_T0_ES6_
	movl	$250, (%esp)
	call	_Sleep@4
	subl	$4, %esp
	movl	$24, 8(%esp)
	movl	$LC81, 4(%esp)
	movl	$__ZSt4cout, (%esp)
	call	__ZSt16__ostream_insertIcSt11char_traitsIcEERSt13basic_ostreamIT_T0_ES6_PKS3_i
	movl	$1, 4(%esp)
	movl	$1, (%esp)
	call	__Z9Color_Setii
	movl	$3, 8(%esp)
	movl	$LC82, 4(%esp)
	movl	$__ZSt4cout, (%esp)
	call	__ZSt16__ostream_insertIcSt11char_traitsIcEERSt13basic_ostreamIT_T0_ES6_PKS3_i
	movl	$16, 4(%esp)
	movl	$16, (%esp)
	call	__Z9Color_Setii
	movl	$22, 8(%esp)
	movl	$LC83, 4(%esp)
	movl	$__ZSt4cout, (%esp)
	call	__ZSt16__ostream_insertIcSt11char_traitsIcEERSt13basic_ostreamIT_T0_ES6_PKS3_i
	movl	$4, 4(%esp)
	movl	$4, (%esp)
	call	__Z9Color_Setii
	movl	$7, 8(%esp)
	movl	$LC84, 4(%esp)
	movl	$__ZSt4cout, (%esp)
	call	__ZSt16__ostream_insertIcSt11char_traitsIcEERSt13basic_ostreamIT_T0_ES6_PKS3_i
	movl	$16, 4(%esp)
	movl	$16, (%esp)
	call	__Z9Color_Setii
	movl	$__ZSt4cout, (%esp)
	call	__ZSt4endlIcSt11char_traitsIcEERSt13basic_ostreamIT_T0_ES6_
	movl	$250, (%esp)
	call	_Sleep@4
	subl	$4, %esp
	movl	$24, 8(%esp)
	movl	$LC81, 4(%esp)
	movl	$__ZSt4cout, (%esp)
	call	__ZSt16__ostream_insertIcSt11char_traitsIcEERSt13basic_ostreamIT_T0_ES6_PKS3_i
	movl	$1, 4(%esp)
	movl	$1, (%esp)
	call	__Z9Color_Setii
	movl	$3, 8(%esp)
	movl	$LC82, 4(%esp)
	movl	$__ZSt4cout, (%esp)
	call	__ZSt16__ostream_insertIcSt11char_traitsIcEERSt13basic_ostreamIT_T0_ES6_PKS3_i
	movl	$16, 4(%esp)
	movl	$16, (%esp)
	call	__Z9Color_Setii
	movl	$19, 8(%esp)
	movl	$LC85, 4(%esp)
	movl	$__ZSt4cout, (%esp)
	call	__ZSt16__ostream_insertIcSt11char_traitsIcEERSt13basic_ostreamIT_T0_ES6_PKS3_i
	movl	$4, 4(%esp)
	movl	$4, (%esp)
	call	__Z9Color_Setii
	movl	$4, 8(%esp)
	movl	$LC86, 4(%esp)
	movl	$__ZSt4cout, (%esp)
	call	__ZSt16__ostream_insertIcSt11char_traitsIcEERSt13basic_ostreamIT_T0_ES6_PKS3_i
	movl	$16, 4(%esp)
	movl	$16, (%esp)
	call	__Z9Color_Setii
	movl	$3, 8(%esp)
	movl	$LC79, 4(%esp)
	movl	$__ZSt4cout, (%esp)
	call	__ZSt16__ostream_insertIcSt11char_traitsIcEERSt13basic_ostreamIT_T0_ES6_PKS3_i
	movl	$4, 4(%esp)
	movl	$4, (%esp)
	call	__Z9Color_Setii
	movl	$3, 8(%esp)
	movl	$LC82, 4(%esp)
	movl	$__ZSt4cout, (%esp)
	call	__ZSt16__ostream_insertIcSt11char_traitsIcEERSt13basic_ostreamIT_T0_ES6_PKS3_i
	movl	$16, 4(%esp)
	movl	$16, (%esp)
	call	__Z9Color_Setii
	movl	$__ZSt4cout, (%esp)
	call	__ZSt4endlIcSt11char_traitsIcEERSt13basic_ostreamIT_T0_ES6_
	movl	$250, (%esp)
	call	_Sleep@4
	subl	$4, %esp
	movl	$24, 8(%esp)
	movl	$LC81, 4(%esp)
	movl	$__ZSt4cout, (%esp)
	call	__ZSt16__ostream_insertIcSt11char_traitsIcEERSt13basic_ostreamIT_T0_ES6_PKS3_i
	movl	$1, 4(%esp)
	movl	$1, (%esp)
	call	__Z9Color_Setii
	movl	$3, 8(%esp)
	movl	$LC82, 4(%esp)
	movl	$__ZSt4cout, (%esp)
	call	__ZSt16__ostream_insertIcSt11char_traitsIcEERSt13basic_ostreamIT_T0_ES6_PKS3_i
	movl	$16, 4(%esp)
	movl	$16, (%esp)
	call	__Z9Color_Setii
	movl	$17, 8(%esp)
	movl	$LC87, 4(%esp)
	movl	$__ZSt4cout, (%esp)
	call	__ZSt16__ostream_insertIcSt11char_traitsIcEERSt13basic_ostreamIT_T0_ES6_PKS3_i
	movl	$4, 4(%esp)
	movl	$4, (%esp)
	call	__Z9Color_Setii
	movl	$4, 8(%esp)
	movl	$LC86, 4(%esp)
	movl	$__ZSt4cout, (%esp)
	call	__ZSt16__ostream_insertIcSt11char_traitsIcEERSt13basic_ostreamIT_T0_ES6_PKS3_i
	movl	$16, 4(%esp)
	movl	$16, (%esp)
	call	__Z9Color_Setii
	movl	$5, 8(%esp)
	movl	$LC88, 4(%esp)
	movl	$__ZSt4cout, (%esp)
	call	__ZSt16__ostream_insertIcSt11char_traitsIcEERSt13basic_ostreamIT_T0_ES6_PKS3_i
	movl	$4, 4(%esp)
	movl	$4, (%esp)
	call	__Z9Color_Setii
	movl	$3, 8(%esp)
	movl	$LC82, 4(%esp)
	movl	$__ZSt4cout, (%esp)
	call	__ZSt16__ostream_insertIcSt11char_traitsIcEERSt13basic_ostreamIT_T0_ES6_PKS3_i
	movl	$16, 4(%esp)
	movl	$16, (%esp)
	call	__Z9Color_Setii
	movl	$__ZSt4cout, (%esp)
	call	__ZSt4endlIcSt11char_traitsIcEERSt13basic_ostreamIT_T0_ES6_
	movl	$250, (%esp)
	call	_Sleep@4
	subl	$4, %esp
	movl	$24, 8(%esp)
	movl	$LC81, 4(%esp)
	movl	$__ZSt4cout, (%esp)
	call	__ZSt16__ostream_insertIcSt11char_traitsIcEERSt13basic_ostreamIT_T0_ES6_PKS3_i
	movl	$1, 4(%esp)
	movl	$1, (%esp)
	call	__Z9Color_Setii
	movl	$3, 8(%esp)
	movl	$LC82, 4(%esp)
	movl	$__ZSt4cout, (%esp)
	call	__ZSt16__ostream_insertIcSt11char_traitsIcEERSt13basic_ostreamIT_T0_ES6_PKS3_i
	movl	$16, 4(%esp)
	movl	$16, (%esp)
	call	__Z9Color_Setii
	movl	$10, 8(%esp)
	movl	$LC89, 4(%esp)
	movl	$__ZSt4cout, (%esp)
	call	__ZSt16__ostream_insertIcSt11char_traitsIcEERSt13basic_ostreamIT_T0_ES6_PKS3_i
	movl	$4, 4(%esp)
	movl	$4, (%esp)
	call	__Z9Color_Setii
	movl	$7, 8(%esp)
	movl	$LC84, 4(%esp)
	movl	$__ZSt4cout, (%esp)
	call	__ZSt16__ostream_insertIcSt11char_traitsIcEERSt13basic_ostreamIT_T0_ES6_PKS3_i
	movl	$16, 4(%esp)
	movl	$16, (%esp)
	call	__Z9Color_Setii
	movl	$9, 8(%esp)
	movl	$LC90, 4(%esp)
	movl	$__ZSt4cout, (%esp)
	call	__ZSt16__ostream_insertIcSt11char_traitsIcEERSt13basic_ostreamIT_T0_ES6_PKS3_i
	movl	$4, 4(%esp)
	movl	$4, (%esp)
	call	__Z9Color_Setii
	movl	$3, 8(%esp)
	movl	$LC82, 4(%esp)
	movl	$__ZSt4cout, (%esp)
	call	__ZSt16__ostream_insertIcSt11char_traitsIcEERSt13basic_ostreamIT_T0_ES6_PKS3_i
	movl	$16, 4(%esp)
	movl	$16, (%esp)
	call	__Z9Color_Setii
	movl	$__ZSt4cout, (%esp)
	call	__ZSt4endlIcSt11char_traitsIcEERSt13basic_ostreamIT_T0_ES6_
	movl	$250, (%esp)
	call	_Sleep@4
	subl	$4, %esp
	movl	$24, 8(%esp)
	movl	$LC81, 4(%esp)
	movl	$__ZSt4cout, (%esp)
	call	__ZSt16__ostream_insertIcSt11char_traitsIcEERSt13basic_ostreamIT_T0_ES6_PKS3_i
	movl	$1, 4(%esp)
	movl	$1, (%esp)
	call	__Z9Color_Setii
	movl	$3, 8(%esp)
	movl	$LC82, 4(%esp)
	movl	$__ZSt4cout, (%esp)
	call	__ZSt16__ostream_insertIcSt11char_traitsIcEERSt13basic_ostreamIT_T0_ES6_PKS3_i
	movl	$16, 4(%esp)
	movl	$16, (%esp)
	call	__Z9Color_Setii
	movl	$8, 8(%esp)
	movl	$LC91, 4(%esp)
	movl	$__ZSt4cout, (%esp)
	call	__ZSt16__ostream_insertIcSt11char_traitsIcEERSt13basic_ostreamIT_T0_ES6_PKS3_i
	movl	$4, 4(%esp)
	movl	$4, (%esp)
	call	__Z9Color_Setii
	movl	$11, 8(%esp)
	movl	$LC92, 4(%esp)
	movl	$__ZSt4cout, (%esp)
	call	__ZSt16__ostream_insertIcSt11char_traitsIcEERSt13basic_ostreamIT_T0_ES6_PKS3_i
	movl	$16, 4(%esp)
	movl	$16, (%esp)
	call	__Z9Color_Setii
	movl	$7, 8(%esp)
	movl	$LC93, 4(%esp)
	movl	$__ZSt4cout, (%esp)
	call	__ZSt16__ostream_insertIcSt11char_traitsIcEERSt13basic_ostreamIT_T0_ES6_PKS3_i
	movl	$4, 4(%esp)
	movl	$4, (%esp)
	call	__Z9Color_Setii
	movl	$3, 8(%esp)
	movl	$LC82, 4(%esp)
	movl	$__ZSt4cout, (%esp)
	call	__ZSt16__ostream_insertIcSt11char_traitsIcEERSt13basic_ostreamIT_T0_ES6_PKS3_i
	movl	$16, 4(%esp)
	movl	$16, (%esp)
	call	__Z9Color_Setii
	movl	$__ZSt4cout, (%esp)
	call	__ZSt4endlIcSt11char_traitsIcEERSt13basic_ostreamIT_T0_ES6_
	movl	$250, (%esp)
	call	_Sleep@4
	subl	$4, %esp
	movl	$24, 8(%esp)
	movl	$LC81, 4(%esp)
	movl	$__ZSt4cout, (%esp)
	call	__ZSt16__ostream_insertIcSt11char_traitsIcEERSt13basic_ostreamIT_T0_ES6_PKS3_i
	movl	$1, 4(%esp)
	movl	$1, (%esp)
	call	__Z9Color_Setii
	movl	$3, 8(%esp)
	movl	$LC82, 4(%esp)
	movl	$__ZSt4cout, (%esp)
	call	__ZSt16__ostream_insertIcSt11char_traitsIcEERSt13basic_ostreamIT_T0_ES6_PKS3_i
	movl	$16, 4(%esp)
	movl	$16, (%esp)
	call	__Z9Color_Setii
	movl	$7, 8(%esp)
	movl	$LC93, 4(%esp)
	movl	$__ZSt4cout, (%esp)
	call	__ZSt16__ostream_insertIcSt11char_traitsIcEERSt13basic_ostreamIT_T0_ES6_PKS3_i
	movl	$4, 4(%esp)
	movl	$4, (%esp)
	call	__Z9Color_Setii
	movl	$13, 8(%esp)
	movl	$LC94, 4(%esp)
	movl	$__ZSt4cout, (%esp)
	call	__ZSt16__ostream_insertIcSt11char_traitsIcEERSt13basic_ostreamIT_T0_ES6_PKS3_i
	movl	$16, 4(%esp)
	movl	$16, (%esp)
	call	__Z9Color_Setii
	movl	$6, 8(%esp)
	movl	$LC95, 4(%esp)
	movl	$__ZSt4cout, (%esp)
	call	__ZSt16__ostream_insertIcSt11char_traitsIcEERSt13basic_ostreamIT_T0_ES6_PKS3_i
	movl	$4, 4(%esp)
	movl	$4, (%esp)
	call	__Z9Color_Setii
	movl	$3, 8(%esp)
	movl	$LC82, 4(%esp)
	movl	$__ZSt4cout, (%esp)
	call	__ZSt16__ostream_insertIcSt11char_traitsIcEERSt13basic_ostreamIT_T0_ES6_PKS3_i
	movl	$16, 4(%esp)
	movl	$16, (%esp)
	call	__Z9Color_Setii
	movl	$__ZSt4cout, (%esp)
	call	__ZSt4endlIcSt11char_traitsIcEERSt13basic_ostreamIT_T0_ES6_
	movl	$250, (%esp)
	call	_Sleep@4
	subl	$4, %esp
	movl	$24, 8(%esp)
	movl	$LC81, 4(%esp)
	movl	$__ZSt4cout, (%esp)
	call	__ZSt16__ostream_insertIcSt11char_traitsIcEERSt13basic_ostreamIT_T0_ES6_PKS3_i
	movl	$1, 4(%esp)
	movl	$1, (%esp)
	call	__Z9Color_Setii
	movl	$3, 8(%esp)
	movl	$LC82, 4(%esp)
	movl	$__ZSt4cout, (%esp)
	call	__ZSt16__ostream_insertIcSt11char_traitsIcEERSt13basic_ostreamIT_T0_ES6_PKS3_i
	movl	$16, 4(%esp)
	movl	$16, (%esp)
	call	__Z9Color_Setii
	movl	$7, 8(%esp)
	movl	$LC93, 4(%esp)
	movl	$__ZSt4cout, (%esp)
	call	__ZSt16__ostream_insertIcSt11char_traitsIcEERSt13basic_ostreamIT_T0_ES6_PKS3_i
	movl	$4, 4(%esp)
	movl	$4, (%esp)
	call	__Z9Color_Setii
	movl	$13, 8(%esp)
	movl	$LC94, 4(%esp)
	movl	$__ZSt4cout, (%esp)
	call	__ZSt16__ostream_insertIcSt11char_traitsIcEERSt13basic_ostreamIT_T0_ES6_PKS3_i
	movl	$16, 4(%esp)
	movl	$16, (%esp)
	call	__Z9Color_Setii
	movl	$__ZSt4cout, (%esp)
	call	__ZSt4endlIcSt11char_traitsIcEERSt13basic_ostreamIT_T0_ES6_
	movl	$250, (%esp)
	call	_Sleep@4
	subl	$4, %esp
	movl	$24, 8(%esp)
	movl	$LC81, 4(%esp)
	movl	$__ZSt4cout, (%esp)
	call	__ZSt16__ostream_insertIcSt11char_traitsIcEERSt13basic_ostreamIT_T0_ES6_PKS3_i
	movl	$1, 4(%esp)
	movl	$1, (%esp)
	call	__Z9Color_Setii
	movl	$3, 8(%esp)
	movl	$LC82, 4(%esp)
	movl	$__ZSt4cout, (%esp)
	call	__ZSt16__ostream_insertIcSt11char_traitsIcEERSt13basic_ostreamIT_T0_ES6_PKS3_i
	movl	$16, 4(%esp)
	movl	$16, (%esp)
	call	__Z9Color_Setii
	movl	$8, 8(%esp)
	movl	$LC91, 4(%esp)
	movl	$__ZSt4cout, (%esp)
	call	__ZSt16__ostream_insertIcSt11char_traitsIcEERSt13basic_ostreamIT_T0_ES6_PKS3_i
	movl	$4, 4(%esp)
	movl	$4, (%esp)
	call	__Z9Color_Setii
	movl	$11, 8(%esp)
	movl	$LC92, 4(%esp)
	movl	$__ZSt4cout, (%esp)
	call	__ZSt16__ostream_insertIcSt11char_traitsIcEERSt13basic_ostreamIT_T0_ES6_PKS3_i
	movl	$16, 4(%esp)
	movl	$16, (%esp)
	call	__Z9Color_Setii
	movl	$2, 8(%esp)
	movl	$LC96, 4(%esp)
	movl	$__ZSt4cout, (%esp)
	call	__ZSt16__ostream_insertIcSt11char_traitsIcEERSt13basic_ostreamIT_T0_ES6_PKS3_i
	movl	$13, 4(%esp)
	movl	$13, (%esp)
	call	__Z9Color_Setii
	movl	$8, 8(%esp)
	movl	$LC97, 4(%esp)
	movl	$__ZSt4cout, (%esp)
	call	__ZSt16__ostream_insertIcSt11char_traitsIcEERSt13basic_ostreamIT_T0_ES6_PKS3_i
	movl	$16, 4(%esp)
	movl	$16, (%esp)
	call	__Z9Color_Setii
	movl	$__ZSt4cout, (%esp)
	call	__ZSt4endlIcSt11char_traitsIcEERSt13basic_ostreamIT_T0_ES6_
	movl	$250, (%esp)
	call	_Sleep@4
	subl	$4, %esp
	movl	$24, 8(%esp)
	movl	$LC81, 4(%esp)
	movl	$__ZSt4cout, (%esp)
	call	__ZSt16__ostream_insertIcSt11char_traitsIcEERSt13basic_ostreamIT_T0_ES6_PKS3_i
	movl	$1, 4(%esp)
	movl	$1, (%esp)
	call	__Z9Color_Setii
	movl	$3, 8(%esp)
	movl	$LC82, 4(%esp)
	movl	$__ZSt4cout, (%esp)
	call	__ZSt16__ostream_insertIcSt11char_traitsIcEERSt13basic_ostreamIT_T0_ES6_PKS3_i
	movl	$16, 4(%esp)
	movl	$16, (%esp)
	call	__Z9Color_Setii
	movl	$10, 8(%esp)
	movl	$LC89, 4(%esp)
	movl	$__ZSt4cout, (%esp)
	call	__ZSt16__ostream_insertIcSt11char_traitsIcEERSt13basic_ostreamIT_T0_ES6_PKS3_i
	movl	$4, 4(%esp)
	movl	$4, (%esp)
	call	__Z9Color_Setii
	movl	$7, 8(%esp)
	movl	$LC84, 4(%esp)
	movl	$__ZSt4cout, (%esp)
	call	__ZSt16__ostream_insertIcSt11char_traitsIcEERSt13basic_ostreamIT_T0_ES6_PKS3_i
	movl	$16, 4(%esp)
	movl	$16, (%esp)
	call	__Z9Color_Setii
	movl	$4, 8(%esp)
	movl	$LC98, 4(%esp)
	movl	$__ZSt4cout, (%esp)
	call	__ZSt16__ostream_insertIcSt11char_traitsIcEERSt13basic_ostreamIT_T0_ES6_PKS3_i
	movl	$13, 4(%esp)
	movl	$13, (%esp)
	call	__Z9Color_Setii
	movl	$8, 8(%esp)
	movl	$LC97, 4(%esp)
	movl	$__ZSt4cout, (%esp)
	call	__ZSt16__ostream_insertIcSt11char_traitsIcEERSt13basic_ostreamIT_T0_ES6_PKS3_i
	movl	$16, 4(%esp)
	movl	$16, (%esp)
	call	__Z9Color_Setii
	movl	$__ZSt4cout, (%esp)
	call	__ZSt4endlIcSt11char_traitsIcEERSt13basic_ostreamIT_T0_ES6_
	movl	$250, (%esp)
	call	_Sleep@4
	subl	$4, %esp
L139:
	movl	$__ZSt4cout, (%esp)
	call	__ZSt4endlIcSt11char_traitsIcEERSt13basic_ostreamIT_T0_ES6_
	movl	$250, (%esp)
	call	_Sleep@4
	subl	$4, %esp
	subl	$1, %ebx
	jne	L139
	movl	$23, 8(%esp)
	movl	$4, %esi
	movl	$LC99, 4(%esp)
	movl	$__ZSt4cout, (%esp)
	call	__ZSt16__ostream_insertIcSt11char_traitsIcEERSt13basic_ostreamIT_T0_ES6_PKS3_i
	movl	$10, 4(%esp)
	movl	$10, (%esp)
	call	__Z9Color_Setii
	movl	$2, 8(%esp)
	movl	$LC100, 4(%esp)
	movl	$__ZSt4cout, (%esp)
	call	__ZSt16__ostream_insertIcSt11char_traitsIcEERSt13basic_ostreamIT_T0_ES6_PKS3_i
	movl	$16, 4(%esp)
	movl	$16, (%esp)
	call	__Z9Color_Setii
	movl	$2, 8(%esp)
	movl	$LC96, 4(%esp)
	movl	$__ZSt4cout, (%esp)
	call	__ZSt16__ostream_insertIcSt11char_traitsIcEERSt13basic_ostreamIT_T0_ES6_PKS3_i
	movl	$14, 4(%esp)
	movl	$14, (%esp)
	call	__Z9Color_Setii
	movl	$2, 8(%esp)
	movl	$LC100, 4(%esp)
	movl	$__ZSt4cout, (%esp)
	call	__ZSt16__ostream_insertIcSt11char_traitsIcEERSt13basic_ostreamIT_T0_ES6_PKS3_i
	movl	$16, 4(%esp)
	movl	$16, (%esp)
	call	__Z9Color_Setii
	movl	$2, 8(%esp)
	movl	$LC96, 4(%esp)
	movl	$__ZSt4cout, (%esp)
	call	__ZSt16__ostream_insertIcSt11char_traitsIcEERSt13basic_ostreamIT_T0_ES6_PKS3_i
	movl	$15, 4(%esp)
	movl	$15, (%esp)
	call	__Z9Color_Setii
	movl	$2, 8(%esp)
	movl	$LC100, 4(%esp)
	movl	$__ZSt4cout, (%esp)
	call	__ZSt16__ostream_insertIcSt11char_traitsIcEERSt13basic_ostreamIT_T0_ES6_PKS3_i
	movl	$16, 4(%esp)
	movl	$16, (%esp)
	call	__Z9Color_Setii
	movl	$2, 8(%esp)
	movl	$LC96, 4(%esp)
	movl	$__ZSt4cout, (%esp)
	call	__ZSt16__ostream_insertIcSt11char_traitsIcEERSt13basic_ostreamIT_T0_ES6_PKS3_i
	movl	$1, 4(%esp)
	movl	$1, (%esp)
	call	__Z9Color_Setii
	movl	$2, 8(%esp)
	movl	$LC100, 4(%esp)
	movl	$__ZSt4cout, (%esp)
	call	__ZSt16__ostream_insertIcSt11char_traitsIcEERSt13basic_ostreamIT_T0_ES6_PKS3_i
	movl	$16, 4(%esp)
	movl	$16, (%esp)
	call	__Z9Color_Setii
	movl	$__ZSt4cout, (%esp)
	call	__ZSt4endlIcSt11char_traitsIcEERSt13basic_ostreamIT_T0_ES6_
	movl	$250, (%esp)
	call	_Sleep@4
	subl	$4, %esp
L140:
	movl	__ZSt4cout, %eax
	movl	-12(%eax), %eax
	movl	__ZSt4cout+124(%eax), %ebx
	testl	%ebx, %ebx
	je	L134
	cmpb	$0, 28(%ebx)
	je	L154
	movzbl	39(%ebx), %eax
L142:
	movsbl	%al, %eax
	movl	$__ZSt4cout, %ecx
	movl	%eax, (%esp)
	call	__ZNSo3putEc
	subl	$4, %esp
	movl	%eax, %ecx
	call	__ZNSo5flushEv
	movl	$250, (%esp)
	call	_Sleep@4
	subl	$4, %esp
	subl	$1, %esi
	jne	L140
	movl	$2500, (%esp)
	call	_Sleep@4
	subl	$4, %esp
	movl	$LC7, (%esp)
	call	_system
	movl	$LC101, (%esp)
	call	_system
	leal	-8(%ebp), %esp
	popl	%ebx
	.cfi_remember_state
	.cfi_restore 3
	popl	%esi
	.cfi_restore 6
	popl	%ebp
	.cfi_restore 5
	.cfi_def_cfa 4, 4
	ret
	.p2align 4,,7
L153:
	.cfi_restore_state
	movl	%ebx, %ecx
	call	__ZNKSt5ctypeIcE13_M_widen_initEv
	movl	(%ebx), %eax
	movl	%ebx, %ecx
	movl	$10, (%esp)
	call	*24(%eax)
	subl	$4, %esp
	jmp	L136
	.p2align 4,,7
L154:
	movl	%ebx, %ecx
	call	__ZNKSt5ctypeIcE13_M_widen_initEv
	movl	(%ebx), %eax
	movl	%ebx, %ecx
	movl	$10, (%esp)
	call	*24(%eax)
	subl	$4, %esp
	jmp	L142
L134:
	call	__ZSt16__throw_bad_castv
	.cfi_endproc
LFE1377:
	.section .rdata,"dr"
LC102:
	.ascii "mode con cols=80 lines=25\0"
	.align 4
LC103:
	.ascii "-                                                                             -\0"
	.align 4
LC104:
	.ascii "-    *****   *   *    *     *   *  *   *  *****       *****  *****  *****     -\0"
	.align 4
LC105:
	.ascii "-      *     *   *   * *    **  *  *  *   *           *      *   *  *   *     -\0"
	.align 4
LC106:
	.ascii "-      *     *****  *****   * * *  ***    *****       ***    *   *  *****     -\0"
	.align 4
LC107:
	.ascii "-      *     *   *  *   *   *  **  *  *       *       *      *   *  *  *      -\0"
	.align 4
LC108:
	.ascii "-      *     *   *  *   *   *   *  *   *  *****       *      *****  *   *     -\0"
	.align 4
LC109:
	.ascii "-              *****  *        *    *   *  *****   *   *  *****               -\0"
	.align 4
LC110:
	.ascii "-              *   *  *       * *    * *     *     **  *  *                   -\0"
	.align 4
LC111:
	.ascii "-              *****  *      *****    *      *     * * *  *  **               -\0"
	.align 4
LC112:
	.ascii "-              *      *      *   *    *      *     *  **  *   *               -\0"
	.align 4
LC113:
	.ascii "-              *      *****  *   *    *    *****   *   *  *****               -\0"
	.align 4
LC114:
	.ascii "-                                \271\247\317\262\304\372 \315\250\271\330\323\316\317\267                              -\0"
	.align 4
LC115:
	.ascii "-                   \301\355\315\342 \270\320\320\273\304\372\273\250\267\321\304\372\325\344\271\363\265\304\312\261\274\344\315\250\271\330\261\311\310\313\265\304\323\316\317\267                 -\0"
	.align 4
LC116:
	.ascii "-          \260\321\264\313\263\241\276\260\275\330\315\274\317\302\300\264 \267\242\313\315\326\301\316\322\265\304QQ \277\311\322\324\273\361\265\303\320\241\275\261\306\267\305\266 \243\250\310\347\271\373\323\320\265\304\273\260\243\251      -\0"
	.align 4
LC117:
	.ascii "-                       (\317\353\275\370\310\353\264\313\303\373\265\245\243\277\325\346\325\375\244\316QQ:2943003)                      -\0"
	.align 4
LC118:
	.ascii " \326\306\327\367\261\263\276\260:\316\322\303\307\324\332\270\243\310\375\326\320\311\317\274\306\313\343\273\372\317\304\301\356\323\252\260\242,\310\273\272\363\264\363\274\322\276\315\322\273\306\360\277\252\312\274\327\366\323\316\317\267,\263\264\274\246\277\252\320\304.\0"
	.align 4
LC119:
	.ascii "          \306\344\312\265\325\342\270\366\323\316\317\267\272\334\266\340\306\332\315\373\266\274\303\273\323\320\327\366\315\352\260\241,\312\261\274\344\301\367\312\305\265\304\314\253\277\354\301\313orz.\0"
	.align 4
LC120:
	.ascii "          \310\347\271\373\322\324\272\363\264\323\312\302\326\306\327\367\323\316\317\267\265\304\271\244\327\367,\317\243\315\373\304\334\261\243\263\326\263\365\320\304,\326\306\327\367\322\273\277\356\310\303\327\324\274\272\277\354\300\326\265\304\323\316\317\267.\0"
	.align 4
LC121:
	.ascii " \326\306\327\367\312\261\274\344:2017.8.3-2017.8.14 [Alpha\305\266]              by.MS.YXH 2017.8.14.11.20\0"
	.text
	.p2align 4,,15
	.globl	__Z15Pass_Game_Happyv
	.def	__Z15Pass_Game_Happyv;	.scl	2;	.type	32;	.endef
__Z15Pass_Game_Happyv:
LFB1378:
	.cfi_startproc
	pushl	%ebp
	.cfi_def_cfa_offset 8
	.cfi_offset 5, -8
	movl	%esp, %ebp
	.cfi_def_cfa_register 5
	pushl	%esi
	.cfi_offset 6, -12
	movl	$30, %esi
	pushl	%ebx
	subl	$16, %esp
	.cfi_offset 3, -16
	movl	$LC102, (%esp)
	call	_system
	movl	$LC1, (%esp)
	call	_system
	movl	$79, 8(%esp)
	movl	$LC22, 4(%esp)
	movl	$__ZSt4cout, (%esp)
	call	__ZSt16__ostream_insertIcSt11char_traitsIcEERSt13basic_ostreamIT_T0_ES6_PKS3_i
	movl	$__ZSt4cout, (%esp)
	call	__ZSt4endlIcSt11char_traitsIcEERSt13basic_ostreamIT_T0_ES6_
	movl	$79, 8(%esp)
	movl	$LC103, 4(%esp)
	movl	$__ZSt4cout, (%esp)
	call	__ZSt16__ostream_insertIcSt11char_traitsIcEERSt13basic_ostreamIT_T0_ES6_PKS3_i
	movl	$__ZSt4cout, (%esp)
	call	__ZSt4endlIcSt11char_traitsIcEERSt13basic_ostreamIT_T0_ES6_
	movl	$79, 8(%esp)
	movl	$LC104, 4(%esp)
	movl	$__ZSt4cout, (%esp)
	call	__ZSt16__ostream_insertIcSt11char_traitsIcEERSt13basic_ostreamIT_T0_ES6_PKS3_i
	movl	$__ZSt4cout, (%esp)
	call	__ZSt4endlIcSt11char_traitsIcEERSt13basic_ostreamIT_T0_ES6_
	movl	$79, 8(%esp)
	movl	$LC105, 4(%esp)
	movl	$__ZSt4cout, (%esp)
	call	__ZSt16__ostream_insertIcSt11char_traitsIcEERSt13basic_ostreamIT_T0_ES6_PKS3_i
	movl	$__ZSt4cout, (%esp)
	call	__ZSt4endlIcSt11char_traitsIcEERSt13basic_ostreamIT_T0_ES6_
	movl	$79, 8(%esp)
	movl	$LC106, 4(%esp)
	movl	$__ZSt4cout, (%esp)
	call	__ZSt16__ostream_insertIcSt11char_traitsIcEERSt13basic_ostreamIT_T0_ES6_PKS3_i
	movl	$__ZSt4cout, (%esp)
	call	__ZSt4endlIcSt11char_traitsIcEERSt13basic_ostreamIT_T0_ES6_
	movl	$79, 8(%esp)
	movl	$LC107, 4(%esp)
	movl	$__ZSt4cout, (%esp)
	call	__ZSt16__ostream_insertIcSt11char_traitsIcEERSt13basic_ostreamIT_T0_ES6_PKS3_i
	movl	$__ZSt4cout, (%esp)
	call	__ZSt4endlIcSt11char_traitsIcEERSt13basic_ostreamIT_T0_ES6_
	movl	$79, 8(%esp)
	movl	$LC108, 4(%esp)
	movl	$__ZSt4cout, (%esp)
	call	__ZSt16__ostream_insertIcSt11char_traitsIcEERSt13basic_ostreamIT_T0_ES6_PKS3_i
	movl	$__ZSt4cout, (%esp)
	call	__ZSt4endlIcSt11char_traitsIcEERSt13basic_ostreamIT_T0_ES6_
	movl	$79, 8(%esp)
	movl	$LC103, 4(%esp)
	movl	$__ZSt4cout, (%esp)
	call	__ZSt16__ostream_insertIcSt11char_traitsIcEERSt13basic_ostreamIT_T0_ES6_PKS3_i
	movl	$__ZSt4cout, (%esp)
	call	__ZSt4endlIcSt11char_traitsIcEERSt13basic_ostreamIT_T0_ES6_
	movl	$79, 8(%esp)
	movl	$LC103, 4(%esp)
	movl	$__ZSt4cout, (%esp)
	call	__ZSt16__ostream_insertIcSt11char_traitsIcEERSt13basic_ostreamIT_T0_ES6_PKS3_i
	movl	$__ZSt4cout, (%esp)
	call	__ZSt4endlIcSt11char_traitsIcEERSt13basic_ostreamIT_T0_ES6_
	movl	$79, 8(%esp)
	movl	$LC103, 4(%esp)
	movl	$__ZSt4cout, (%esp)
	call	__ZSt16__ostream_insertIcSt11char_traitsIcEERSt13basic_ostreamIT_T0_ES6_PKS3_i
	movl	$__ZSt4cout, (%esp)
	call	__ZSt4endlIcSt11char_traitsIcEERSt13basic_ostreamIT_T0_ES6_
	movl	$79, 8(%esp)
	movl	$LC109, 4(%esp)
	movl	$__ZSt4cout, (%esp)
	call	__ZSt16__ostream_insertIcSt11char_traitsIcEERSt13basic_ostreamIT_T0_ES6_PKS3_i
	movl	$__ZSt4cout, (%esp)
	call	__ZSt4endlIcSt11char_traitsIcEERSt13basic_ostreamIT_T0_ES6_
	movl	$79, 8(%esp)
	movl	$LC110, 4(%esp)
	movl	$__ZSt4cout, (%esp)
	call	__ZSt16__ostream_insertIcSt11char_traitsIcEERSt13basic_ostreamIT_T0_ES6_PKS3_i
	movl	$__ZSt4cout, (%esp)
	call	__ZSt4endlIcSt11char_traitsIcEERSt13basic_ostreamIT_T0_ES6_
	movl	$79, 8(%esp)
	movl	$LC111, 4(%esp)
	movl	$__ZSt4cout, (%esp)
	call	__ZSt16__ostream_insertIcSt11char_traitsIcEERSt13basic_ostreamIT_T0_ES6_PKS3_i
	movl	$__ZSt4cout, (%esp)
	call	__ZSt4endlIcSt11char_traitsIcEERSt13basic_ostreamIT_T0_ES6_
	movl	$79, 8(%esp)
	movl	$LC112, 4(%esp)
	movl	$__ZSt4cout, (%esp)
	call	__ZSt16__ostream_insertIcSt11char_traitsIcEERSt13basic_ostreamIT_T0_ES6_PKS3_i
	movl	$__ZSt4cout, (%esp)
	call	__ZSt4endlIcSt11char_traitsIcEERSt13basic_ostreamIT_T0_ES6_
	movl	$79, 8(%esp)
	movl	$LC113, 4(%esp)
	movl	$__ZSt4cout, (%esp)
	call	__ZSt16__ostream_insertIcSt11char_traitsIcEERSt13basic_ostreamIT_T0_ES6_PKS3_i
	movl	$__ZSt4cout, (%esp)
	call	__ZSt4endlIcSt11char_traitsIcEERSt13basic_ostreamIT_T0_ES6_
	movl	$79, 8(%esp)
	movl	$LC103, 4(%esp)
	movl	$__ZSt4cout, (%esp)
	call	__ZSt16__ostream_insertIcSt11char_traitsIcEERSt13basic_ostreamIT_T0_ES6_PKS3_i
	movl	$__ZSt4cout, (%esp)
	call	__ZSt4endlIcSt11char_traitsIcEERSt13basic_ostreamIT_T0_ES6_
	movl	$79, 8(%esp)
	movl	$LC103, 4(%esp)
	movl	$__ZSt4cout, (%esp)
	call	__ZSt16__ostream_insertIcSt11char_traitsIcEERSt13basic_ostreamIT_T0_ES6_PKS3_i
	movl	$__ZSt4cout, (%esp)
	call	__ZSt4endlIcSt11char_traitsIcEERSt13basic_ostreamIT_T0_ES6_
	movl	$79, 8(%esp)
	movl	$LC114, 4(%esp)
	movl	$__ZSt4cout, (%esp)
	call	__ZSt16__ostream_insertIcSt11char_traitsIcEERSt13basic_ostreamIT_T0_ES6_PKS3_i
	movl	$__ZSt4cout, (%esp)
	call	__ZSt4endlIcSt11char_traitsIcEERSt13basic_ostreamIT_T0_ES6_
	movl	$79, 8(%esp)
	movl	$LC115, 4(%esp)
	movl	$__ZSt4cout, (%esp)
	call	__ZSt16__ostream_insertIcSt11char_traitsIcEERSt13basic_ostreamIT_T0_ES6_PKS3_i
	movl	$__ZSt4cout, (%esp)
	call	__ZSt4endlIcSt11char_traitsIcEERSt13basic_ostreamIT_T0_ES6_
	movl	$79, 8(%esp)
	movl	$LC103, 4(%esp)
	movl	$__ZSt4cout, (%esp)
	call	__ZSt16__ostream_insertIcSt11char_traitsIcEERSt13basic_ostreamIT_T0_ES6_PKS3_i
	movl	$__ZSt4cout, (%esp)
	call	__ZSt4endlIcSt11char_traitsIcEERSt13basic_ostreamIT_T0_ES6_
	movl	$79, 8(%esp)
	movl	$LC116, 4(%esp)
	movl	$__ZSt4cout, (%esp)
	call	__ZSt16__ostream_insertIcSt11char_traitsIcEERSt13basic_ostreamIT_T0_ES6_PKS3_i
	movl	$__ZSt4cout, (%esp)
	call	__ZSt4endlIcSt11char_traitsIcEERSt13basic_ostreamIT_T0_ES6_
	movl	$79, 8(%esp)
	movl	$LC103, 4(%esp)
	movl	$__ZSt4cout, (%esp)
	call	__ZSt16__ostream_insertIcSt11char_traitsIcEERSt13basic_ostreamIT_T0_ES6_PKS3_i
	movl	$__ZSt4cout, (%esp)
	call	__ZSt4endlIcSt11char_traitsIcEERSt13basic_ostreamIT_T0_ES6_
	movl	$79, 8(%esp)
	movl	$LC22, 4(%esp)
	movl	$__ZSt4cout, (%esp)
	call	__ZSt16__ostream_insertIcSt11char_traitsIcEERSt13basic_ostreamIT_T0_ES6_PKS3_i
	movl	$__ZSt4cout, (%esp)
	call	__ZSt4endlIcSt11char_traitsIcEERSt13basic_ostreamIT_T0_ES6_
	movl	$LC7, (%esp)
	call	_system
	movl	$LC1, (%esp)
	call	_system
	jmp	L160
	.p2align 4,,7
L175:
	movzbl	39(%ebx), %eax
L158:
	movsbl	%al, %eax
	movl	$__ZSt4cout, %ecx
	movl	%eax, (%esp)
	call	__ZNSo3putEc
	subl	$4, %esp
	movl	%eax, %ecx
	call	__ZNSo5flushEv
	subl	$1, %esi
	je	L174
L160:
	movl	__ZSt4cout, %eax
	movl	-12(%eax), %eax
	movl	__ZSt4cout+124(%eax), %ebx
	testl	%ebx, %ebx
	je	L162
	cmpb	$0, 28(%ebx)
	jne	L175
	movl	%ebx, %ecx
	call	__ZNKSt5ctypeIcE13_M_widen_initEv
	movl	(%ebx), %eax
	movl	%ebx, %ecx
	movl	$10, (%esp)
	call	*24(%eax)
	subl	$4, %esp
	jmp	L158
	.p2align 4,,7
L174:
	movl	$79, 8(%esp)
	movl	$5, %esi
	movl	$LC64, 4(%esp)
	movl	$__ZSt4cout, (%esp)
	call	__ZSt16__ostream_insertIcSt11char_traitsIcEERSt13basic_ostreamIT_T0_ES6_PKS3_i
	movl	$__ZSt4cout, (%esp)
	call	__ZSt4endlIcSt11char_traitsIcEERSt13basic_ostreamIT_T0_ES6_
	movl	$250, (%esp)
	call	_Sleep@4
	subl	$4, %esp
	movl	$79, 8(%esp)
	movl	$LC65, 4(%esp)
	movl	$__ZSt4cout, (%esp)
	call	__ZSt16__ostream_insertIcSt11char_traitsIcEERSt13basic_ostreamIT_T0_ES6_PKS3_i
	movl	$__ZSt4cout, (%esp)
	call	__ZSt4endlIcSt11char_traitsIcEERSt13basic_ostreamIT_T0_ES6_
	movl	$250, (%esp)
	call	_Sleep@4
	subl	$4, %esp
	movl	$__ZSt4cout, (%esp)
	call	__ZSt4endlIcSt11char_traitsIcEERSt13basic_ostreamIT_T0_ES6_
	movl	$250, (%esp)
	call	_Sleep@4
	subl	$4, %esp
	movl	$79, 8(%esp)
	movl	$LC66, 4(%esp)
	movl	$__ZSt4cout, (%esp)
	call	__ZSt16__ostream_insertIcSt11char_traitsIcEERSt13basic_ostreamIT_T0_ES6_PKS3_i
	movl	$__ZSt4cout, (%esp)
	call	__ZSt4endlIcSt11char_traitsIcEERSt13basic_ostreamIT_T0_ES6_
	movl	$250, (%esp)
	call	_Sleep@4
	subl	$4, %esp
	movl	$79, 8(%esp)
	movl	$LC67, 4(%esp)
	movl	$__ZSt4cout, (%esp)
	call	__ZSt16__ostream_insertIcSt11char_traitsIcEERSt13basic_ostreamIT_T0_ES6_PKS3_i
	movl	$__ZSt4cout, (%esp)
	call	__ZSt4endlIcSt11char_traitsIcEERSt13basic_ostreamIT_T0_ES6_
	movl	$250, (%esp)
	call	_Sleep@4
	subl	$4, %esp
	movl	$__ZSt4cout, (%esp)
	call	__ZSt4endlIcSt11char_traitsIcEERSt13basic_ostreamIT_T0_ES6_
	movl	$250, (%esp)
	call	_Sleep@4
	subl	$4, %esp
	movl	$79, 8(%esp)
	movl	$LC68, 4(%esp)
	movl	$__ZSt4cout, (%esp)
	call	__ZSt16__ostream_insertIcSt11char_traitsIcEERSt13basic_ostreamIT_T0_ES6_PKS3_i
	movl	$__ZSt4cout, (%esp)
	call	__ZSt4endlIcSt11char_traitsIcEERSt13basic_ostreamIT_T0_ES6_
	movl	$250, (%esp)
	call	_Sleep@4
	subl	$4, %esp
	movl	$79, 8(%esp)
	movl	$LC67, 4(%esp)
	movl	$__ZSt4cout, (%esp)
	call	__ZSt16__ostream_insertIcSt11char_traitsIcEERSt13basic_ostreamIT_T0_ES6_PKS3_i
	movl	$__ZSt4cout, (%esp)
	call	__ZSt4endlIcSt11char_traitsIcEERSt13basic_ostreamIT_T0_ES6_
	movl	$250, (%esp)
	call	_Sleep@4
	subl	$4, %esp
	movl	$__ZSt4cout, (%esp)
	call	__ZSt4endlIcSt11char_traitsIcEERSt13basic_ostreamIT_T0_ES6_
	movl	$250, (%esp)
	call	_Sleep@4
	subl	$4, %esp
	movl	$79, 8(%esp)
	movl	$LC69, 4(%esp)
	movl	$__ZSt4cout, (%esp)
	call	__ZSt16__ostream_insertIcSt11char_traitsIcEERSt13basic_ostreamIT_T0_ES6_PKS3_i
	movl	$__ZSt4cout, (%esp)
	call	__ZSt4endlIcSt11char_traitsIcEERSt13basic_ostreamIT_T0_ES6_
	movl	$250, (%esp)
	call	_Sleep@4
	subl	$4, %esp
	movl	$79, 8(%esp)
	movl	$LC67, 4(%esp)
	movl	$__ZSt4cout, (%esp)
	call	__ZSt16__ostream_insertIcSt11char_traitsIcEERSt13basic_ostreamIT_T0_ES6_PKS3_i
	movl	$__ZSt4cout, (%esp)
	call	__ZSt4endlIcSt11char_traitsIcEERSt13basic_ostreamIT_T0_ES6_
	movl	$250, (%esp)
	call	_Sleep@4
	subl	$4, %esp
	movl	$__ZSt4cout, (%esp)
	call	__ZSt4endlIcSt11char_traitsIcEERSt13basic_ostreamIT_T0_ES6_
	movl	$250, (%esp)
	call	_Sleep@4
	subl	$4, %esp
	movl	$79, 8(%esp)
	movl	$LC70, 4(%esp)
	movl	$__ZSt4cout, (%esp)
	call	__ZSt16__ostream_insertIcSt11char_traitsIcEERSt13basic_ostreamIT_T0_ES6_PKS3_i
	movl	$__ZSt4cout, (%esp)
	call	__ZSt4endlIcSt11char_traitsIcEERSt13basic_ostreamIT_T0_ES6_
	movl	$250, (%esp)
	call	_Sleep@4
	subl	$4, %esp
	movl	$79, 8(%esp)
	movl	$LC71, 4(%esp)
	movl	$__ZSt4cout, (%esp)
	call	__ZSt16__ostream_insertIcSt11char_traitsIcEERSt13basic_ostreamIT_T0_ES6_PKS3_i
	movl	$__ZSt4cout, (%esp)
	call	__ZSt4endlIcSt11char_traitsIcEERSt13basic_ostreamIT_T0_ES6_
	movl	$250, (%esp)
	call	_Sleep@4
	subl	$4, %esp
	movl	$79, 8(%esp)
	movl	$LC72, 4(%esp)
	movl	$__ZSt4cout, (%esp)
	call	__ZSt16__ostream_insertIcSt11char_traitsIcEERSt13basic_ostreamIT_T0_ES6_PKS3_i
	movl	$__ZSt4cout, (%esp)
	call	__ZSt4endlIcSt11char_traitsIcEERSt13basic_ostreamIT_T0_ES6_
	movl	$250, (%esp)
	call	_Sleep@4
	subl	$4, %esp
	movl	$79, 8(%esp)
	movl	$LC73, 4(%esp)
	movl	$__ZSt4cout, (%esp)
	call	__ZSt16__ostream_insertIcSt11char_traitsIcEERSt13basic_ostreamIT_T0_ES6_PKS3_i
	movl	$__ZSt4cout, (%esp)
	call	__ZSt4endlIcSt11char_traitsIcEERSt13basic_ostreamIT_T0_ES6_
	movl	$250, (%esp)
	call	_Sleep@4
	subl	$4, %esp
	movl	$79, 8(%esp)
	movl	$LC74, 4(%esp)
	movl	$__ZSt4cout, (%esp)
	call	__ZSt16__ostream_insertIcSt11char_traitsIcEERSt13basic_ostreamIT_T0_ES6_PKS3_i
	movl	$__ZSt4cout, (%esp)
	call	__ZSt4endlIcSt11char_traitsIcEERSt13basic_ostreamIT_T0_ES6_
	movl	$250, (%esp)
	call	_Sleep@4
	subl	$4, %esp
	movl	$79, 8(%esp)
	movl	$LC75, 4(%esp)
	movl	$__ZSt4cout, (%esp)
	call	__ZSt16__ostream_insertIcSt11char_traitsIcEERSt13basic_ostreamIT_T0_ES6_PKS3_i
	movl	$__ZSt4cout, (%esp)
	call	__ZSt4endlIcSt11char_traitsIcEERSt13basic_ostreamIT_T0_ES6_
	movl	$250, (%esp)
	call	_Sleep@4
	subl	$4, %esp
	movl	$79, 8(%esp)
	movl	$LC117, 4(%esp)
	movl	$__ZSt4cout, (%esp)
	call	__ZSt16__ostream_insertIcSt11char_traitsIcEERSt13basic_ostreamIT_T0_ES6_PKS3_i
	movl	$__ZSt4cout, (%esp)
	call	__ZSt4endlIcSt11char_traitsIcEERSt13basic_ostreamIT_T0_ES6_
	movl	$250, (%esp)
	call	_Sleep@4
	subl	$4, %esp
L161:
	movl	__ZSt4cout, %eax
	movl	-12(%eax), %eax
	movl	__ZSt4cout+124(%eax), %ebx
	testl	%ebx, %ebx
	je	L162
	cmpb	$0, 28(%ebx)
	je	L176
	movzbl	39(%ebx), %eax
L164:
	movsbl	%al, %eax
	movl	$__ZSt4cout, %ecx
	movl	%eax, (%esp)
	call	__ZNSo3putEc
	subl	$4, %esp
	movl	%eax, %ecx
	call	__ZNSo5flushEv
	movl	$250, (%esp)
	call	_Sleep@4
	subl	$4, %esp
	subl	$1, %esi
	jne	L161
	movl	$__ZSt4cout, (%esp)
	movl	$3, %ebx
	call	__ZSt4endlIcSt11char_traitsIcEERSt13basic_ostreamIT_T0_ES6_
	movl	$250, (%esp)
	call	_Sleep@4
	subl	$4, %esp
	movl	$24, 8(%esp)
	movl	$LC77, 4(%esp)
	movl	$__ZSt4cout, (%esp)
	call	__ZSt16__ostream_insertIcSt11char_traitsIcEERSt13basic_ostreamIT_T0_ES6_PKS3_i
	movl	$1, 4(%esp)
	movl	$1, (%esp)
	call	__Z9Color_Setii
	movl	$14, 8(%esp)
	movl	$LC78, 4(%esp)
	movl	$__ZSt4cout, (%esp)
	call	__ZSt16__ostream_insertIcSt11char_traitsIcEERSt13basic_ostreamIT_T0_ES6_PKS3_i
	movl	$16, 4(%esp)
	movl	$16, (%esp)
	call	__Z9Color_Setii
	movl	$3, 8(%esp)
	movl	$LC79, 4(%esp)
	movl	$__ZSt4cout, (%esp)
	call	__ZSt16__ostream_insertIcSt11char_traitsIcEERSt13basic_ostreamIT_T0_ES6_PKS3_i
	movl	$4, 4(%esp)
	movl	$4, (%esp)
	call	__Z9Color_Setii
	movl	$15, 8(%esp)
	movl	$LC80, 4(%esp)
	movl	$__ZSt4cout, (%esp)
	call	__ZSt16__ostream_insertIcSt11char_traitsIcEERSt13basic_ostreamIT_T0_ES6_PKS3_i
	movl	$16, 4(%esp)
	movl	$16, (%esp)
	call	__Z9Color_Setii
	movl	$__ZSt4cout, (%esp)
	call	__ZSt4endlIcSt11char_traitsIcEERSt13basic_ostreamIT_T0_ES6_
	movl	$250, (%esp)
	call	_Sleep@4
	subl	$4, %esp
	movl	$24, 8(%esp)
	movl	$LC81, 4(%esp)
	movl	$__ZSt4cout, (%esp)
	call	__ZSt16__ostream_insertIcSt11char_traitsIcEERSt13basic_ostreamIT_T0_ES6_PKS3_i
	movl	$1, 4(%esp)
	movl	$1, (%esp)
	call	__Z9Color_Setii
	movl	$14, 8(%esp)
	movl	$LC78, 4(%esp)
	movl	$__ZSt4cout, (%esp)
	call	__ZSt16__ostream_insertIcSt11char_traitsIcEERSt13basic_ostreamIT_T0_ES6_PKS3_i
	movl	$16, 4(%esp)
	movl	$16, (%esp)
	call	__Z9Color_Setii
	movl	$3, 8(%esp)
	movl	$LC79, 4(%esp)
	movl	$__ZSt4cout, (%esp)
	call	__ZSt16__ostream_insertIcSt11char_traitsIcEERSt13basic_ostreamIT_T0_ES6_PKS3_i
	movl	$4, 4(%esp)
	movl	$4, (%esp)
	call	__Z9Color_Setii
	movl	$15, 8(%esp)
	movl	$LC80, 4(%esp)
	movl	$__ZSt4cout, (%esp)
	call	__ZSt16__ostream_insertIcSt11char_traitsIcEERSt13basic_ostreamIT_T0_ES6_PKS3_i
	movl	$16, 4(%esp)
	movl	$16, (%esp)
	call	__Z9Color_Setii
	movl	$__ZSt4cout, (%esp)
	call	__ZSt4endlIcSt11char_traitsIcEERSt13basic_ostreamIT_T0_ES6_
	movl	$250, (%esp)
	call	_Sleep@4
	subl	$4, %esp
	movl	$24, 8(%esp)
	movl	$LC81, 4(%esp)
	movl	$__ZSt4cout, (%esp)
	call	__ZSt16__ostream_insertIcSt11char_traitsIcEERSt13basic_ostreamIT_T0_ES6_PKS3_i
	movl	$1, 4(%esp)
	movl	$1, (%esp)
	call	__Z9Color_Setii
	movl	$3, 8(%esp)
	movl	$LC82, 4(%esp)
	movl	$__ZSt4cout, (%esp)
	call	__ZSt16__ostream_insertIcSt11char_traitsIcEERSt13basic_ostreamIT_T0_ES6_PKS3_i
	movl	$16, 4(%esp)
	movl	$16, (%esp)
	call	__Z9Color_Setii
	movl	$22, 8(%esp)
	movl	$LC83, 4(%esp)
	movl	$__ZSt4cout, (%esp)
	call	__ZSt16__ostream_insertIcSt11char_traitsIcEERSt13basic_ostreamIT_T0_ES6_PKS3_i
	movl	$4, 4(%esp)
	movl	$4, (%esp)
	call	__Z9Color_Setii
	movl	$7, 8(%esp)
	movl	$LC84, 4(%esp)
	movl	$__ZSt4cout, (%esp)
	call	__ZSt16__ostream_insertIcSt11char_traitsIcEERSt13basic_ostreamIT_T0_ES6_PKS3_i
	movl	$16, 4(%esp)
	movl	$16, (%esp)
	call	__Z9Color_Setii
	movl	$__ZSt4cout, (%esp)
	call	__ZSt4endlIcSt11char_traitsIcEERSt13basic_ostreamIT_T0_ES6_
	movl	$250, (%esp)
	call	_Sleep@4
	subl	$4, %esp
	movl	$24, 8(%esp)
	movl	$LC81, 4(%esp)
	movl	$__ZSt4cout, (%esp)
	call	__ZSt16__ostream_insertIcSt11char_traitsIcEERSt13basic_ostreamIT_T0_ES6_PKS3_i
	movl	$1, 4(%esp)
	movl	$1, (%esp)
	call	__Z9Color_Setii
	movl	$3, 8(%esp)
	movl	$LC82, 4(%esp)
	movl	$__ZSt4cout, (%esp)
	call	__ZSt16__ostream_insertIcSt11char_traitsIcEERSt13basic_ostreamIT_T0_ES6_PKS3_i
	movl	$16, 4(%esp)
	movl	$16, (%esp)
	call	__Z9Color_Setii
	movl	$19, 8(%esp)
	movl	$LC85, 4(%esp)
	movl	$__ZSt4cout, (%esp)
	call	__ZSt16__ostream_insertIcSt11char_traitsIcEERSt13basic_ostreamIT_T0_ES6_PKS3_i
	movl	$4, 4(%esp)
	movl	$4, (%esp)
	call	__Z9Color_Setii
	movl	$4, 8(%esp)
	movl	$LC86, 4(%esp)
	movl	$__ZSt4cout, (%esp)
	call	__ZSt16__ostream_insertIcSt11char_traitsIcEERSt13basic_ostreamIT_T0_ES6_PKS3_i
	movl	$16, 4(%esp)
	movl	$16, (%esp)
	call	__Z9Color_Setii
	movl	$3, 8(%esp)
	movl	$LC79, 4(%esp)
	movl	$__ZSt4cout, (%esp)
	call	__ZSt16__ostream_insertIcSt11char_traitsIcEERSt13basic_ostreamIT_T0_ES6_PKS3_i
	movl	$4, 4(%esp)
	movl	$4, (%esp)
	call	__Z9Color_Setii
	movl	$3, 8(%esp)
	movl	$LC82, 4(%esp)
	movl	$__ZSt4cout, (%esp)
	call	__ZSt16__ostream_insertIcSt11char_traitsIcEERSt13basic_ostreamIT_T0_ES6_PKS3_i
	movl	$16, 4(%esp)
	movl	$16, (%esp)
	call	__Z9Color_Setii
	movl	$__ZSt4cout, (%esp)
	call	__ZSt4endlIcSt11char_traitsIcEERSt13basic_ostreamIT_T0_ES6_
	movl	$250, (%esp)
	call	_Sleep@4
	subl	$4, %esp
	movl	$24, 8(%esp)
	movl	$LC81, 4(%esp)
	movl	$__ZSt4cout, (%esp)
	call	__ZSt16__ostream_insertIcSt11char_traitsIcEERSt13basic_ostreamIT_T0_ES6_PKS3_i
	movl	$1, 4(%esp)
	movl	$1, (%esp)
	call	__Z9Color_Setii
	movl	$3, 8(%esp)
	movl	$LC82, 4(%esp)
	movl	$__ZSt4cout, (%esp)
	call	__ZSt16__ostream_insertIcSt11char_traitsIcEERSt13basic_ostreamIT_T0_ES6_PKS3_i
	movl	$16, 4(%esp)
	movl	$16, (%esp)
	call	__Z9Color_Setii
	movl	$17, 8(%esp)
	movl	$LC87, 4(%esp)
	movl	$__ZSt4cout, (%esp)
	call	__ZSt16__ostream_insertIcSt11char_traitsIcEERSt13basic_ostreamIT_T0_ES6_PKS3_i
	movl	$4, 4(%esp)
	movl	$4, (%esp)
	call	__Z9Color_Setii
	movl	$4, 8(%esp)
	movl	$LC86, 4(%esp)
	movl	$__ZSt4cout, (%esp)
	call	__ZSt16__ostream_insertIcSt11char_traitsIcEERSt13basic_ostreamIT_T0_ES6_PKS3_i
	movl	$16, 4(%esp)
	movl	$16, (%esp)
	call	__Z9Color_Setii
	movl	$5, 8(%esp)
	movl	$LC88, 4(%esp)
	movl	$__ZSt4cout, (%esp)
	call	__ZSt16__ostream_insertIcSt11char_traitsIcEERSt13basic_ostreamIT_T0_ES6_PKS3_i
	movl	$4, 4(%esp)
	movl	$4, (%esp)
	call	__Z9Color_Setii
	movl	$3, 8(%esp)
	movl	$LC82, 4(%esp)
	movl	$__ZSt4cout, (%esp)
	call	__ZSt16__ostream_insertIcSt11char_traitsIcEERSt13basic_ostreamIT_T0_ES6_PKS3_i
	movl	$16, 4(%esp)
	movl	$16, (%esp)
	call	__Z9Color_Setii
	movl	$__ZSt4cout, (%esp)
	call	__ZSt4endlIcSt11char_traitsIcEERSt13basic_ostreamIT_T0_ES6_
	movl	$250, (%esp)
	call	_Sleep@4
	subl	$4, %esp
	movl	$24, 8(%esp)
	movl	$LC81, 4(%esp)
	movl	$__ZSt4cout, (%esp)
	call	__ZSt16__ostream_insertIcSt11char_traitsIcEERSt13basic_ostreamIT_T0_ES6_PKS3_i
	movl	$1, 4(%esp)
	movl	$1, (%esp)
	call	__Z9Color_Setii
	movl	$3, 8(%esp)
	movl	$LC82, 4(%esp)
	movl	$__ZSt4cout, (%esp)
	call	__ZSt16__ostream_insertIcSt11char_traitsIcEERSt13basic_ostreamIT_T0_ES6_PKS3_i
	movl	$16, 4(%esp)
	movl	$16, (%esp)
	call	__Z9Color_Setii
	movl	$10, 8(%esp)
	movl	$LC89, 4(%esp)
	movl	$__ZSt4cout, (%esp)
	call	__ZSt16__ostream_insertIcSt11char_traitsIcEERSt13basic_ostreamIT_T0_ES6_PKS3_i
	movl	$4, 4(%esp)
	movl	$4, (%esp)
	call	__Z9Color_Setii
	movl	$7, 8(%esp)
	movl	$LC84, 4(%esp)
	movl	$__ZSt4cout, (%esp)
	call	__ZSt16__ostream_insertIcSt11char_traitsIcEERSt13basic_ostreamIT_T0_ES6_PKS3_i
	movl	$16, 4(%esp)
	movl	$16, (%esp)
	call	__Z9Color_Setii
	movl	$9, 8(%esp)
	movl	$LC90, 4(%esp)
	movl	$__ZSt4cout, (%esp)
	call	__ZSt16__ostream_insertIcSt11char_traitsIcEERSt13basic_ostreamIT_T0_ES6_PKS3_i
	movl	$4, 4(%esp)
	movl	$4, (%esp)
	call	__Z9Color_Setii
	movl	$3, 8(%esp)
	movl	$LC82, 4(%esp)
	movl	$__ZSt4cout, (%esp)
	call	__ZSt16__ostream_insertIcSt11char_traitsIcEERSt13basic_ostreamIT_T0_ES6_PKS3_i
	movl	$16, 4(%esp)
	movl	$16, (%esp)
	call	__Z9Color_Setii
	movl	$__ZSt4cout, (%esp)
	call	__ZSt4endlIcSt11char_traitsIcEERSt13basic_ostreamIT_T0_ES6_
	movl	$250, (%esp)
	call	_Sleep@4
	subl	$4, %esp
	movl	$24, 8(%esp)
	movl	$LC81, 4(%esp)
	movl	$__ZSt4cout, (%esp)
	call	__ZSt16__ostream_insertIcSt11char_traitsIcEERSt13basic_ostreamIT_T0_ES6_PKS3_i
	movl	$1, 4(%esp)
	movl	$1, (%esp)
	call	__Z9Color_Setii
	movl	$3, 8(%esp)
	movl	$LC82, 4(%esp)
	movl	$__ZSt4cout, (%esp)
	call	__ZSt16__ostream_insertIcSt11char_traitsIcEERSt13basic_ostreamIT_T0_ES6_PKS3_i
	movl	$16, 4(%esp)
	movl	$16, (%esp)
	call	__Z9Color_Setii
	movl	$8, 8(%esp)
	movl	$LC91, 4(%esp)
	movl	$__ZSt4cout, (%esp)
	call	__ZSt16__ostream_insertIcSt11char_traitsIcEERSt13basic_ostreamIT_T0_ES6_PKS3_i
	movl	$4, 4(%esp)
	movl	$4, (%esp)
	call	__Z9Color_Setii
	movl	$11, 8(%esp)
	movl	$LC92, 4(%esp)
	movl	$__ZSt4cout, (%esp)
	call	__ZSt16__ostream_insertIcSt11char_traitsIcEERSt13basic_ostreamIT_T0_ES6_PKS3_i
	movl	$16, 4(%esp)
	movl	$16, (%esp)
	call	__Z9Color_Setii
	movl	$7, 8(%esp)
	movl	$LC93, 4(%esp)
	movl	$__ZSt4cout, (%esp)
	call	__ZSt16__ostream_insertIcSt11char_traitsIcEERSt13basic_ostreamIT_T0_ES6_PKS3_i
	movl	$4, 4(%esp)
	movl	$4, (%esp)
	call	__Z9Color_Setii
	movl	$3, 8(%esp)
	movl	$LC82, 4(%esp)
	movl	$__ZSt4cout, (%esp)
	call	__ZSt16__ostream_insertIcSt11char_traitsIcEERSt13basic_ostreamIT_T0_ES6_PKS3_i
	movl	$16, 4(%esp)
	movl	$16, (%esp)
	call	__Z9Color_Setii
	movl	$__ZSt4cout, (%esp)
	call	__ZSt4endlIcSt11char_traitsIcEERSt13basic_ostreamIT_T0_ES6_
	movl	$250, (%esp)
	call	_Sleep@4
	subl	$4, %esp
	movl	$24, 8(%esp)
	movl	$LC81, 4(%esp)
	movl	$__ZSt4cout, (%esp)
	call	__ZSt16__ostream_insertIcSt11char_traitsIcEERSt13basic_ostreamIT_T0_ES6_PKS3_i
	movl	$1, 4(%esp)
	movl	$1, (%esp)
	call	__Z9Color_Setii
	movl	$3, 8(%esp)
	movl	$LC82, 4(%esp)
	movl	$__ZSt4cout, (%esp)
	call	__ZSt16__ostream_insertIcSt11char_traitsIcEERSt13basic_ostreamIT_T0_ES6_PKS3_i
	movl	$16, 4(%esp)
	movl	$16, (%esp)
	call	__Z9Color_Setii
	movl	$7, 8(%esp)
	movl	$LC93, 4(%esp)
	movl	$__ZSt4cout, (%esp)
	call	__ZSt16__ostream_insertIcSt11char_traitsIcEERSt13basic_ostreamIT_T0_ES6_PKS3_i
	movl	$4, 4(%esp)
	movl	$4, (%esp)
	call	__Z9Color_Setii
	movl	$13, 8(%esp)
	movl	$LC94, 4(%esp)
	movl	$__ZSt4cout, (%esp)
	call	__ZSt16__ostream_insertIcSt11char_traitsIcEERSt13basic_ostreamIT_T0_ES6_PKS3_i
	movl	$16, 4(%esp)
	movl	$16, (%esp)
	call	__Z9Color_Setii
	movl	$6, 8(%esp)
	movl	$LC95, 4(%esp)
	movl	$__ZSt4cout, (%esp)
	call	__ZSt16__ostream_insertIcSt11char_traitsIcEERSt13basic_ostreamIT_T0_ES6_PKS3_i
	movl	$4, 4(%esp)
	movl	$4, (%esp)
	call	__Z9Color_Setii
	movl	$3, 8(%esp)
	movl	$LC82, 4(%esp)
	movl	$__ZSt4cout, (%esp)
	call	__ZSt16__ostream_insertIcSt11char_traitsIcEERSt13basic_ostreamIT_T0_ES6_PKS3_i
	movl	$16, 4(%esp)
	movl	$16, (%esp)
	call	__Z9Color_Setii
	movl	$__ZSt4cout, (%esp)
	call	__ZSt4endlIcSt11char_traitsIcEERSt13basic_ostreamIT_T0_ES6_
	movl	$250, (%esp)
	call	_Sleep@4
	subl	$4, %esp
	movl	$24, 8(%esp)
	movl	$LC81, 4(%esp)
	movl	$__ZSt4cout, (%esp)
	call	__ZSt16__ostream_insertIcSt11char_traitsIcEERSt13basic_ostreamIT_T0_ES6_PKS3_i
	movl	$1, 4(%esp)
	movl	$1, (%esp)
	call	__Z9Color_Setii
	movl	$3, 8(%esp)
	movl	$LC82, 4(%esp)
	movl	$__ZSt4cout, (%esp)
	call	__ZSt16__ostream_insertIcSt11char_traitsIcEERSt13basic_ostreamIT_T0_ES6_PKS3_i
	movl	$16, 4(%esp)
	movl	$16, (%esp)
	call	__Z9Color_Setii
	movl	$7, 8(%esp)
	movl	$LC93, 4(%esp)
	movl	$__ZSt4cout, (%esp)
	call	__ZSt16__ostream_insertIcSt11char_traitsIcEERSt13basic_ostreamIT_T0_ES6_PKS3_i
	movl	$4, 4(%esp)
	movl	$4, (%esp)
	call	__Z9Color_Setii
	movl	$13, 8(%esp)
	movl	$LC94, 4(%esp)
	movl	$__ZSt4cout, (%esp)
	call	__ZSt16__ostream_insertIcSt11char_traitsIcEERSt13basic_ostreamIT_T0_ES6_PKS3_i
	movl	$16, 4(%esp)
	movl	$16, (%esp)
	call	__Z9Color_Setii
	movl	$__ZSt4cout, (%esp)
	call	__ZSt4endlIcSt11char_traitsIcEERSt13basic_ostreamIT_T0_ES6_
	movl	$250, (%esp)
	call	_Sleep@4
	subl	$4, %esp
	movl	$24, 8(%esp)
	movl	$LC81, 4(%esp)
	movl	$__ZSt4cout, (%esp)
	call	__ZSt16__ostream_insertIcSt11char_traitsIcEERSt13basic_ostreamIT_T0_ES6_PKS3_i
	movl	$1, 4(%esp)
	movl	$1, (%esp)
	call	__Z9Color_Setii
	movl	$3, 8(%esp)
	movl	$LC82, 4(%esp)
	movl	$__ZSt4cout, (%esp)
	call	__ZSt16__ostream_insertIcSt11char_traitsIcEERSt13basic_ostreamIT_T0_ES6_PKS3_i
	movl	$16, 4(%esp)
	movl	$16, (%esp)
	call	__Z9Color_Setii
	movl	$8, 8(%esp)
	movl	$LC91, 4(%esp)
	movl	$__ZSt4cout, (%esp)
	call	__ZSt16__ostream_insertIcSt11char_traitsIcEERSt13basic_ostreamIT_T0_ES6_PKS3_i
	movl	$4, 4(%esp)
	movl	$4, (%esp)
	call	__Z9Color_Setii
	movl	$11, 8(%esp)
	movl	$LC92, 4(%esp)
	movl	$__ZSt4cout, (%esp)
	call	__ZSt16__ostream_insertIcSt11char_traitsIcEERSt13basic_ostreamIT_T0_ES6_PKS3_i
	movl	$16, 4(%esp)
	movl	$16, (%esp)
	call	__Z9Color_Setii
	movl	$2, 8(%esp)
	movl	$LC96, 4(%esp)
	movl	$__ZSt4cout, (%esp)
	call	__ZSt16__ostream_insertIcSt11char_traitsIcEERSt13basic_ostreamIT_T0_ES6_PKS3_i
	movl	$13, 4(%esp)
	movl	$13, (%esp)
	call	__Z9Color_Setii
	movl	$8, 8(%esp)
	movl	$LC97, 4(%esp)
	movl	$__ZSt4cout, (%esp)
	call	__ZSt16__ostream_insertIcSt11char_traitsIcEERSt13basic_ostreamIT_T0_ES6_PKS3_i
	movl	$16, 4(%esp)
	movl	$16, (%esp)
	call	__Z9Color_Setii
	movl	$__ZSt4cout, (%esp)
	call	__ZSt4endlIcSt11char_traitsIcEERSt13basic_ostreamIT_T0_ES6_
	movl	$250, (%esp)
	call	_Sleep@4
	subl	$4, %esp
	movl	$24, 8(%esp)
	movl	$LC81, 4(%esp)
	movl	$__ZSt4cout, (%esp)
	call	__ZSt16__ostream_insertIcSt11char_traitsIcEERSt13basic_ostreamIT_T0_ES6_PKS3_i
	movl	$1, 4(%esp)
	movl	$1, (%esp)
	call	__Z9Color_Setii
	movl	$3, 8(%esp)
	movl	$LC82, 4(%esp)
	movl	$__ZSt4cout, (%esp)
	call	__ZSt16__ostream_insertIcSt11char_traitsIcEERSt13basic_ostreamIT_T0_ES6_PKS3_i
	movl	$16, 4(%esp)
	movl	$16, (%esp)
	call	__Z9Color_Setii
	movl	$10, 8(%esp)
	movl	$LC89, 4(%esp)
	movl	$__ZSt4cout, (%esp)
	call	__ZSt16__ostream_insertIcSt11char_traitsIcEERSt13basic_ostreamIT_T0_ES6_PKS3_i
	movl	$4, 4(%esp)
	movl	$4, (%esp)
	call	__Z9Color_Setii
	movl	$7, 8(%esp)
	movl	$LC84, 4(%esp)
	movl	$__ZSt4cout, (%esp)
	call	__ZSt16__ostream_insertIcSt11char_traitsIcEERSt13basic_ostreamIT_T0_ES6_PKS3_i
	movl	$16, 4(%esp)
	movl	$16, (%esp)
	call	__Z9Color_Setii
	movl	$4, 8(%esp)
	movl	$LC98, 4(%esp)
	movl	$__ZSt4cout, (%esp)
	call	__ZSt16__ostream_insertIcSt11char_traitsIcEERSt13basic_ostreamIT_T0_ES6_PKS3_i
	movl	$13, 4(%esp)
	movl	$13, (%esp)
	call	__Z9Color_Setii
	movl	$8, 8(%esp)
	movl	$LC97, 4(%esp)
	movl	$__ZSt4cout, (%esp)
	call	__ZSt16__ostream_insertIcSt11char_traitsIcEERSt13basic_ostreamIT_T0_ES6_PKS3_i
	movl	$16, 4(%esp)
	movl	$16, (%esp)
	call	__Z9Color_Setii
	movl	$__ZSt4cout, (%esp)
	call	__ZSt4endlIcSt11char_traitsIcEERSt13basic_ostreamIT_T0_ES6_
	movl	$250, (%esp)
	call	_Sleep@4
	subl	$4, %esp
L167:
	movl	$__ZSt4cout, (%esp)
	call	__ZSt4endlIcSt11char_traitsIcEERSt13basic_ostreamIT_T0_ES6_
	movl	$250, (%esp)
	call	_Sleep@4
	subl	$4, %esp
	subl	$1, %ebx
	jne	L167
	movl	$23, 8(%esp)
	movl	$3, %ebx
	movl	$LC99, 4(%esp)
	movl	$__ZSt4cout, (%esp)
	call	__ZSt16__ostream_insertIcSt11char_traitsIcEERSt13basic_ostreamIT_T0_ES6_PKS3_i
	movl	$10, 4(%esp)
	movl	$10, (%esp)
	call	__Z9Color_Setii
	movl	$2, 8(%esp)
	movl	$LC100, 4(%esp)
	movl	$__ZSt4cout, (%esp)
	call	__ZSt16__ostream_insertIcSt11char_traitsIcEERSt13basic_ostreamIT_T0_ES6_PKS3_i
	movl	$16, 4(%esp)
	movl	$16, (%esp)
	call	__Z9Color_Setii
	movl	$2, 8(%esp)
	movl	$LC96, 4(%esp)
	movl	$__ZSt4cout, (%esp)
	call	__ZSt16__ostream_insertIcSt11char_traitsIcEERSt13basic_ostreamIT_T0_ES6_PKS3_i
	movl	$14, 4(%esp)
	movl	$14, (%esp)
	call	__Z9Color_Setii
	movl	$2, 8(%esp)
	movl	$LC100, 4(%esp)
	movl	$__ZSt4cout, (%esp)
	call	__ZSt16__ostream_insertIcSt11char_traitsIcEERSt13basic_ostreamIT_T0_ES6_PKS3_i
	movl	$16, 4(%esp)
	movl	$16, (%esp)
	call	__Z9Color_Setii
	movl	$2, 8(%esp)
	movl	$LC96, 4(%esp)
	movl	$__ZSt4cout, (%esp)
	call	__ZSt16__ostream_insertIcSt11char_traitsIcEERSt13basic_ostreamIT_T0_ES6_PKS3_i
	movl	$15, 4(%esp)
	movl	$15, (%esp)
	call	__Z9Color_Setii
	movl	$2, 8(%esp)
	movl	$LC100, 4(%esp)
	movl	$__ZSt4cout, (%esp)
	call	__ZSt16__ostream_insertIcSt11char_traitsIcEERSt13basic_ostreamIT_T0_ES6_PKS3_i
	movl	$16, 4(%esp)
	movl	$16, (%esp)
	call	__Z9Color_Setii
	movl	$2, 8(%esp)
	movl	$LC96, 4(%esp)
	movl	$__ZSt4cout, (%esp)
	call	__ZSt16__ostream_insertIcSt11char_traitsIcEERSt13basic_ostreamIT_T0_ES6_PKS3_i
	movl	$1, 4(%esp)
	movl	$1, (%esp)
	call	__Z9Color_Setii
	movl	$2, 8(%esp)
	movl	$LC100, 4(%esp)
	movl	$__ZSt4cout, (%esp)
	call	__ZSt16__ostream_insertIcSt11char_traitsIcEERSt13basic_ostreamIT_T0_ES6_PKS3_i
	movl	$16, 4(%esp)
	movl	$16, (%esp)
	call	__Z9Color_Setii
	movl	$__ZSt4cout, (%esp)
	call	__ZSt4endlIcSt11char_traitsIcEERSt13basic_ostreamIT_T0_ES6_
	movl	$250, (%esp)
	call	_Sleep@4
	subl	$4, %esp
L169:
	movl	$__ZSt4cout, (%esp)
	call	__ZSt4endlIcSt11char_traitsIcEERSt13basic_ostreamIT_T0_ES6_
	movl	$250, (%esp)
	call	_Sleep@4
	subl	$4, %esp
	subl	$1, %ebx
	jne	L169
	movl	$2500, (%esp)
	call	_Sleep@4
	subl	$4, %esp
	movl	$1, 4(%esp)
	movl	$16, (%esp)
	call	__Z9Color_Setii
	movl	$73, 8(%esp)
	movl	$LC118, 4(%esp)
	movl	$__ZSt4cout, (%esp)
	call	__ZSt16__ostream_insertIcSt11char_traitsIcEERSt13basic_ostreamIT_T0_ES6_PKS3_i
	movl	$__ZSt4cout, (%esp)
	call	__ZSt4endlIcSt11char_traitsIcEERSt13basic_ostreamIT_T0_ES6_
	movl	$250, (%esp)
	call	_Sleep@4
	subl	$4, %esp
	movl	$63, 8(%esp)
	movl	$LC119, 4(%esp)
	movl	$__ZSt4cout, (%esp)
	call	__ZSt16__ostream_insertIcSt11char_traitsIcEERSt13basic_ostreamIT_T0_ES6_PKS3_i
	movl	$__ZSt4cout, (%esp)
	call	__ZSt4endlIcSt11char_traitsIcEERSt13basic_ostreamIT_T0_ES6_
	movl	$250, (%esp)
	call	_Sleep@4
	subl	$4, %esp
	movl	$77, 8(%esp)
	movl	$LC120, 4(%esp)
	movl	$__ZSt4cout, (%esp)
	call	__ZSt16__ostream_insertIcSt11char_traitsIcEERSt13basic_ostreamIT_T0_ES6_PKS3_i
	movl	$__ZSt4cout, (%esp)
	call	__ZSt4endlIcSt11char_traitsIcEERSt13basic_ostreamIT_T0_ES6_
	movl	$250, (%esp)
	call	_Sleep@4
	subl	$4, %esp
	movl	$77, 8(%esp)
	movl	$LC121, 4(%esp)
	movl	$__ZSt4cout, (%esp)
	call	__ZSt16__ostream_insertIcSt11char_traitsIcEERSt13basic_ostreamIT_T0_ES6_PKS3_i
	movl	$__ZSt4cout, (%esp)
	call	__ZSt4endlIcSt11char_traitsIcEERSt13basic_ostreamIT_T0_ES6_
	movl	$250, (%esp)
	call	_Sleep@4
	subl	$4, %esp
	movl	$__ZSt4cout, (%esp)
	call	__ZSt4endlIcSt11char_traitsIcEERSt13basic_ostreamIT_T0_ES6_
	movl	$LC101, (%esp)
	call	_system
	movl	$LC7, (%esp)
	call	_system
	leal	-8(%ebp), %esp
	popl	%ebx
	.cfi_remember_state
	.cfi_restore 3
	popl	%esi
	.cfi_restore 6
	popl	%ebp
	.cfi_restore 5
	.cfi_def_cfa 4, 4
	ret
	.p2align 4,,7
L176:
	.cfi_restore_state
	movl	%ebx, %ecx
	call	__ZNKSt5ctypeIcE13_M_widen_initEv
	movl	(%ebx), %eax
	movl	%ebx, %ecx
	movl	$10, (%esp)
	call	*24(%eax)
	subl	$4, %esp
	jmp	L164
L162:
	call	__ZSt16__throw_bad_castv
	.cfi_endproc
LFE1378:
	.section .rdata,"dr"
	.align 4
LC122:
	.ascii "-   ***********************************************************************   -\0"
	.align 4
LC123:
	.ascii "-   *                                                                     *   -\0"
	.text
	.p2align 4,,15
	.globl	__Z7Settingv
	.def	__Z7Settingv;	.scl	2;	.type	32;	.endef
__Z7Settingv:
LFB1379:
	.cfi_startproc
	pushl	%ebp
	.cfi_def_cfa_offset 8
	.cfi_offset 5, -8
	movl	%esp, %ebp
	.cfi_def_cfa_register 5
	pushl	%ebx
	subl	$20, %esp
	.cfi_offset 3, -12
	movl	$LC1, (%esp)
	call	_system
	movl	$79, 8(%esp)
	movl	$LC22, 4(%esp)
	movl	$__ZSt4cout, (%esp)
	call	__ZSt16__ostream_insertIcSt11char_traitsIcEERSt13basic_ostreamIT_T0_ES6_PKS3_i
	movl	__ZSt4cout, %eax
	movl	-12(%eax), %eax
	movl	__ZSt4cout+124(%eax), %ebx
	testl	%ebx, %ebx
	je	L181
	cmpb	$0, 28(%ebx)
	je	L179
	movzbl	39(%ebx), %eax
L180:
	movsbl	%al, %eax
	movl	$__ZSt4cout, %ecx
	movl	%eax, (%esp)
	call	__ZNSo3putEc
	subl	$4, %esp
	movl	%eax, %ecx
	call	__ZNSo5flushEv
	movl	$79, 8(%esp)
	movl	$LC103, 4(%esp)
	movl	$__ZSt4cout, (%esp)
	call	__ZSt16__ostream_insertIcSt11char_traitsIcEERSt13basic_ostreamIT_T0_ES6_PKS3_i
	movl	__ZSt4cout, %eax
	movl	-12(%eax), %eax
	movl	__ZSt4cout+124(%eax), %ebx
	testl	%ebx, %ebx
	je	L181
	cmpb	$0, 28(%ebx)
	je	L182
	movzbl	39(%ebx), %eax
L183:
	movsbl	%al, %eax
	movl	$__ZSt4cout, %ecx
	movl	%eax, (%esp)
	call	__ZNSo3putEc
	subl	$4, %esp
	movl	%eax, %ecx
	call	__ZNSo5flushEv
	movl	$79, 8(%esp)
	movl	$LC103, 4(%esp)
	movl	$__ZSt4cout, (%esp)
	call	__ZSt16__ostream_insertIcSt11char_traitsIcEERSt13basic_ostreamIT_T0_ES6_PKS3_i
	movl	__ZSt4cout, %eax
	movl	-12(%eax), %eax
	movl	__ZSt4cout+124(%eax), %ebx
	testl	%ebx, %ebx
	je	L181
	cmpb	$0, 28(%ebx)
	je	L184
	movzbl	39(%ebx), %eax
L185:
	movsbl	%al, %eax
	movl	$__ZSt4cout, %ecx
	movl	%eax, (%esp)
	call	__ZNSo3putEc
	subl	$4, %esp
	movl	%eax, %ecx
	call	__ZNSo5flushEv
	movl	$79, 8(%esp)
	movl	$LC103, 4(%esp)
	movl	$__ZSt4cout, (%esp)
	call	__ZSt16__ostream_insertIcSt11char_traitsIcEERSt13basic_ostreamIT_T0_ES6_PKS3_i
	movl	__ZSt4cout, %eax
	movl	-12(%eax), %eax
	movl	__ZSt4cout+124(%eax), %ebx
	testl	%ebx, %ebx
	je	L181
	cmpb	$0, 28(%ebx)
	je	L186
	movzbl	39(%ebx), %eax
L187:
	movsbl	%al, %eax
	movl	$__ZSt4cout, %ecx
	movl	%eax, (%esp)
	call	__ZNSo3putEc
	subl	$4, %esp
	movl	%eax, %ecx
	call	__ZNSo5flushEv
	movl	$79, 8(%esp)
	movl	$LC103, 4(%esp)
	movl	$__ZSt4cout, (%esp)
	call	__ZSt16__ostream_insertIcSt11char_traitsIcEERSt13basic_ostreamIT_T0_ES6_PKS3_i
	movl	__ZSt4cout, %eax
	movl	-12(%eax), %eax
	movl	__ZSt4cout+124(%eax), %ebx
	testl	%ebx, %ebx
	je	L181
	cmpb	$0, 28(%ebx)
	je	L188
	movzbl	39(%ebx), %eax
L189:
	movsbl	%al, %eax
	movl	$__ZSt4cout, %ecx
	movl	%eax, (%esp)
	call	__ZNSo3putEc
	subl	$4, %esp
	movl	%eax, %ecx
	call	__ZNSo5flushEv
	movl	$79, 8(%esp)
	movl	$LC103, 4(%esp)
	movl	$__ZSt4cout, (%esp)
	call	__ZSt16__ostream_insertIcSt11char_traitsIcEERSt13basic_ostreamIT_T0_ES6_PKS3_i
	movl	__ZSt4cout, %eax
	movl	-12(%eax), %eax
	movl	__ZSt4cout+124(%eax), %ebx
	testl	%ebx, %ebx
	je	L181
	cmpb	$0, 28(%ebx)
	je	L190
	movzbl	39(%ebx), %eax
L191:
	movsbl	%al, %eax
	movl	$__ZSt4cout, %ecx
	movl	%eax, (%esp)
	call	__ZNSo3putEc
	subl	$4, %esp
	movl	%eax, %ecx
	call	__ZNSo5flushEv
	movl	$79, 8(%esp)
	movl	$LC103, 4(%esp)
	movl	$__ZSt4cout, (%esp)
	call	__ZSt16__ostream_insertIcSt11char_traitsIcEERSt13basic_ostreamIT_T0_ES6_PKS3_i
	movl	__ZSt4cout, %eax
	movl	-12(%eax), %eax
	movl	__ZSt4cout+124(%eax), %ebx
	testl	%ebx, %ebx
	je	L181
	cmpb	$0, 28(%ebx)
	je	L192
	movzbl	39(%ebx), %eax
L193:
	movsbl	%al, %eax
	movl	$__ZSt4cout, %ecx
	movl	%eax, (%esp)
	call	__ZNSo3putEc
	subl	$4, %esp
	movl	%eax, %ecx
	call	__ZNSo5flushEv
	movl	$79, 8(%esp)
	movl	$LC103, 4(%esp)
	movl	$__ZSt4cout, (%esp)
	call	__ZSt16__ostream_insertIcSt11char_traitsIcEERSt13basic_ostreamIT_T0_ES6_PKS3_i
	movl	__ZSt4cout, %eax
	movl	-12(%eax), %eax
	movl	__ZSt4cout+124(%eax), %ebx
	testl	%ebx, %ebx
	je	L181
	cmpb	$0, 28(%ebx)
	je	L194
	movzbl	39(%ebx), %eax
L195:
	movsbl	%al, %eax
	movl	$__ZSt4cout, %ecx
	movl	%eax, (%esp)
	call	__ZNSo3putEc
	subl	$4, %esp
	movl	%eax, %ecx
	call	__ZNSo5flushEv
	movl	$79, 8(%esp)
	movl	$LC103, 4(%esp)
	movl	$__ZSt4cout, (%esp)
	call	__ZSt16__ostream_insertIcSt11char_traitsIcEERSt13basic_ostreamIT_T0_ES6_PKS3_i
	movl	__ZSt4cout, %eax
	movl	-12(%eax), %eax
	movl	__ZSt4cout+124(%eax), %ebx
	testl	%ebx, %ebx
	je	L181
	cmpb	$0, 28(%ebx)
	je	L196
	movzbl	39(%ebx), %eax
L197:
	movsbl	%al, %eax
	movl	$__ZSt4cout, %ecx
	movl	%eax, (%esp)
	call	__ZNSo3putEc
	subl	$4, %esp
	movl	%eax, %ecx
	call	__ZNSo5flushEv
	movl	$79, 8(%esp)
	movl	$LC103, 4(%esp)
	movl	$__ZSt4cout, (%esp)
	call	__ZSt16__ostream_insertIcSt11char_traitsIcEERSt13basic_ostreamIT_T0_ES6_PKS3_i
	movl	__ZSt4cout, %eax
	movl	-12(%eax), %eax
	movl	__ZSt4cout+124(%eax), %ebx
	testl	%ebx, %ebx
	je	L181
	cmpb	$0, 28(%ebx)
	je	L198
	movzbl	39(%ebx), %eax
L199:
	movsbl	%al, %eax
	movl	$__ZSt4cout, %ecx
	movl	%eax, (%esp)
	call	__ZNSo3putEc
	subl	$4, %esp
	movl	%eax, %ecx
	call	__ZNSo5flushEv
	movl	$79, 8(%esp)
	movl	$LC103, 4(%esp)
	movl	$__ZSt4cout, (%esp)
	call	__ZSt16__ostream_insertIcSt11char_traitsIcEERSt13basic_ostreamIT_T0_ES6_PKS3_i
	movl	__ZSt4cout, %eax
	movl	-12(%eax), %eax
	movl	__ZSt4cout+124(%eax), %ebx
	testl	%ebx, %ebx
	je	L181
	cmpb	$0, 28(%ebx)
	je	L200
	movzbl	39(%ebx), %eax
L201:
	movsbl	%al, %eax
	movl	$__ZSt4cout, %ecx
	movl	%eax, (%esp)
	call	__ZNSo3putEc
	subl	$4, %esp
	movl	%eax, %ecx
	call	__ZNSo5flushEv
	movl	$79, 8(%esp)
	movl	$LC103, 4(%esp)
	movl	$__ZSt4cout, (%esp)
	call	__ZSt16__ostream_insertIcSt11char_traitsIcEERSt13basic_ostreamIT_T0_ES6_PKS3_i
	movl	__ZSt4cout, %eax
	movl	-12(%eax), %eax
	movl	__ZSt4cout+124(%eax), %ebx
	testl	%ebx, %ebx
	je	L181
	cmpb	$0, 28(%ebx)
	je	L202
	movzbl	39(%ebx), %eax
L203:
	movsbl	%al, %eax
	movl	$__ZSt4cout, %ecx
	movl	%eax, (%esp)
	call	__ZNSo3putEc
	subl	$4, %esp
	movl	%eax, %ecx
	call	__ZNSo5flushEv
	movl	$79, 8(%esp)
	movl	$LC103, 4(%esp)
	movl	$__ZSt4cout, (%esp)
	call	__ZSt16__ostream_insertIcSt11char_traitsIcEERSt13basic_ostreamIT_T0_ES6_PKS3_i
	movl	__ZSt4cout, %eax
	movl	-12(%eax), %eax
	movl	__ZSt4cout+124(%eax), %ebx
	testl	%ebx, %ebx
	je	L181
	cmpb	$0, 28(%ebx)
	je	L204
	movzbl	39(%ebx), %eax
L205:
	movsbl	%al, %eax
	movl	$__ZSt4cout, %ecx
	movl	%eax, (%esp)
	call	__ZNSo3putEc
	subl	$4, %esp
	movl	%eax, %ecx
	call	__ZNSo5flushEv
	movl	$79, 8(%esp)
	movl	$LC103, 4(%esp)
	movl	$__ZSt4cout, (%esp)
	call	__ZSt16__ostream_insertIcSt11char_traitsIcEERSt13basic_ostreamIT_T0_ES6_PKS3_i
	movl	__ZSt4cout, %eax
	movl	-12(%eax), %eax
	movl	__ZSt4cout+124(%eax), %ebx
	testl	%ebx, %ebx
	je	L181
	cmpb	$0, 28(%ebx)
	je	L206
	movzbl	39(%ebx), %eax
L207:
	movsbl	%al, %eax
	movl	$__ZSt4cout, %ecx
	movl	%eax, (%esp)
	call	__ZNSo3putEc
	subl	$4, %esp
	movl	%eax, %ecx
	call	__ZNSo5flushEv
	movl	$79, 8(%esp)
	movl	$LC103, 4(%esp)
	movl	$__ZSt4cout, (%esp)
	call	__ZSt16__ostream_insertIcSt11char_traitsIcEERSt13basic_ostreamIT_T0_ES6_PKS3_i
	movl	__ZSt4cout, %eax
	movl	-12(%eax), %eax
	movl	__ZSt4cout+124(%eax), %ebx
	testl	%ebx, %ebx
	je	L181
	cmpb	$0, 28(%ebx)
	je	L208
	movzbl	39(%ebx), %eax
L209:
	movsbl	%al, %eax
	movl	$__ZSt4cout, %ecx
	movl	%eax, (%esp)
	call	__ZNSo3putEc
	subl	$4, %esp
	movl	%eax, %ecx
	call	__ZNSo5flushEv
	movl	$79, 8(%esp)
	movl	$LC122, 4(%esp)
	movl	$__ZSt4cout, (%esp)
	call	__ZSt16__ostream_insertIcSt11char_traitsIcEERSt13basic_ostreamIT_T0_ES6_PKS3_i
	movl	__ZSt4cout, %eax
	movl	-12(%eax), %eax
	movl	__ZSt4cout+124(%eax), %ebx
	testl	%ebx, %ebx
	je	L181
	cmpb	$0, 28(%ebx)
	je	L210
	movzbl	39(%ebx), %eax
L211:
	movsbl	%al, %eax
	movl	$__ZSt4cout, %ecx
	movl	%eax, (%esp)
	call	__ZNSo3putEc
	subl	$4, %esp
	movl	%eax, %ecx
	call	__ZNSo5flushEv
	movl	$79, 8(%esp)
	movl	$LC123, 4(%esp)
	movl	$__ZSt4cout, (%esp)
	call	__ZSt16__ostream_insertIcSt11char_traitsIcEERSt13basic_ostreamIT_T0_ES6_PKS3_i
	movl	__ZSt4cout, %eax
	movl	-12(%eax), %eax
	movl	__ZSt4cout+124(%eax), %ebx
	testl	%ebx, %ebx
	je	L181
	cmpb	$0, 28(%ebx)
	je	L212
	movzbl	39(%ebx), %eax
L213:
	movsbl	%al, %eax
	movl	$__ZSt4cout, %ecx
	movl	%eax, (%esp)
	call	__ZNSo3putEc
	subl	$4, %esp
	movl	%eax, %ecx
	call	__ZNSo5flushEv
	movl	$79, 8(%esp)
	movl	$LC123, 4(%esp)
	movl	$__ZSt4cout, (%esp)
	call	__ZSt16__ostream_insertIcSt11char_traitsIcEERSt13basic_ostreamIT_T0_ES6_PKS3_i
	movl	__ZSt4cout, %eax
	movl	-12(%eax), %eax
	movl	__ZSt4cout+124(%eax), %ebx
	testl	%ebx, %ebx
	je	L181
	cmpb	$0, 28(%ebx)
	je	L214
	movzbl	39(%ebx), %eax
L215:
	movsbl	%al, %eax
	movl	$__ZSt4cout, %ecx
	movl	%eax, (%esp)
	call	__ZNSo3putEc
	subl	$4, %esp
	movl	%eax, %ecx
	call	__ZNSo5flushEv
	movl	$79, 8(%esp)
	movl	$LC123, 4(%esp)
	movl	$__ZSt4cout, (%esp)
	call	__ZSt16__ostream_insertIcSt11char_traitsIcEERSt13basic_ostreamIT_T0_ES6_PKS3_i
	movl	__ZSt4cout, %eax
	movl	-12(%eax), %eax
	movl	__ZSt4cout+124(%eax), %ebx
	testl	%ebx, %ebx
	je	L181
	cmpb	$0, 28(%ebx)
	je	L216
	movzbl	39(%ebx), %eax
L217:
	movsbl	%al, %eax
	movl	$__ZSt4cout, %ecx
	movl	%eax, (%esp)
	call	__ZNSo3putEc
	subl	$4, %esp
	movl	%eax, %ecx
	call	__ZNSo5flushEv
	movl	$79, 8(%esp)
	movl	$LC123, 4(%esp)
	movl	$__ZSt4cout, (%esp)
	call	__ZSt16__ostream_insertIcSt11char_traitsIcEERSt13basic_ostreamIT_T0_ES6_PKS3_i
	movl	__ZSt4cout, %eax
	movl	-12(%eax), %eax
	movl	__ZSt4cout+124(%eax), %ebx
	testl	%ebx, %ebx
	je	L181
	cmpb	$0, 28(%ebx)
	je	L218
	movzbl	39(%ebx), %eax
L219:
	movsbl	%al, %eax
	movl	$__ZSt4cout, %ecx
	movl	%eax, (%esp)
	call	__ZNSo3putEc
	subl	$4, %esp
	movl	%eax, %ecx
	call	__ZNSo5flushEv
	movl	$79, 8(%esp)
	movl	$LC122, 4(%esp)
	movl	$__ZSt4cout, (%esp)
	call	__ZSt16__ostream_insertIcSt11char_traitsIcEERSt13basic_ostreamIT_T0_ES6_PKS3_i
	movl	__ZSt4cout, %eax
	movl	-12(%eax), %eax
	movl	__ZSt4cout+124(%eax), %ebx
	testl	%ebx, %ebx
	je	L181
	cmpb	$0, 28(%ebx)
	je	L220
	movzbl	39(%ebx), %eax
L221:
	movsbl	%al, %eax
	movl	$__ZSt4cout, %ecx
	movl	%eax, (%esp)
	call	__ZNSo3putEc
	subl	$4, %esp
	movl	%eax, %ecx
	call	__ZNSo5flushEv
	movl	$79, 8(%esp)
	movl	$LC103, 4(%esp)
	movl	$__ZSt4cout, (%esp)
	call	__ZSt16__ostream_insertIcSt11char_traitsIcEERSt13basic_ostreamIT_T0_ES6_PKS3_i
	movl	__ZSt4cout, %eax
	movl	-12(%eax), %eax
	movl	__ZSt4cout+124(%eax), %ebx
	testl	%ebx, %ebx
	je	L181
	cmpb	$0, 28(%ebx)
	je	L222
	movzbl	39(%ebx), %eax
L223:
	movsbl	%al, %eax
	movl	$__ZSt4cout, %ecx
	movl	%eax, (%esp)
	call	__ZNSo3putEc
	subl	$4, %esp
	movl	%eax, %ecx
	call	__ZNSo5flushEv
	movl	$79, 8(%esp)
	movl	$LC22, 4(%esp)
	movl	$__ZSt4cout, (%esp)
	call	__ZSt16__ostream_insertIcSt11char_traitsIcEERSt13basic_ostreamIT_T0_ES6_PKS3_i
	movl	__ZSt4cout, %eax
	movl	-12(%eax), %eax
	movl	__ZSt4cout+124(%eax), %ebx
	testl	%ebx, %ebx
	je	L181
	cmpb	$0, 28(%ebx)
	je	L224
	movzbl	39(%ebx), %eax
L225:
	movsbl	%al, %eax
	movl	$__ZSt4cout, %ecx
	movl	%eax, (%esp)
	call	__ZNSo3putEc
	subl	$4, %esp
	movl	%eax, %ecx
	call	__ZNSo5flushEv
	movl	$LC7, (%esp)
	call	_system
	movl	-4(%ebp), %ebx
	leave
	.cfi_remember_state
	.cfi_restore 5
	.cfi_restore 3
	.cfi_def_cfa 4, 4
	ret
	.p2align 4,,7
L179:
	.cfi_restore_state
	movl	%ebx, %ecx
	call	__ZNKSt5ctypeIcE13_M_widen_initEv
	movl	(%ebx), %eax
	movl	%ebx, %ecx
	movl	$10, (%esp)
	call	*24(%eax)
	subl	$4, %esp
	jmp	L180
	.p2align 4,,7
L182:
	movl	%ebx, %ecx
	call	__ZNKSt5ctypeIcE13_M_widen_initEv
	movl	(%ebx), %eax
	movl	%ebx, %ecx
	movl	$10, (%esp)
	call	*24(%eax)
	subl	$4, %esp
	jmp	L183
	.p2align 4,,7
L184:
	movl	%ebx, %ecx
	call	__ZNKSt5ctypeIcE13_M_widen_initEv
	movl	(%ebx), %eax
	movl	%ebx, %ecx
	movl	$10, (%esp)
	call	*24(%eax)
	subl	$4, %esp
	jmp	L185
	.p2align 4,,7
L186:
	movl	%ebx, %ecx
	call	__ZNKSt5ctypeIcE13_M_widen_initEv
	movl	(%ebx), %eax
	movl	%ebx, %ecx
	movl	$10, (%esp)
	call	*24(%eax)
	subl	$4, %esp
	jmp	L187
	.p2align 4,,7
L188:
	movl	%ebx, %ecx
	call	__ZNKSt5ctypeIcE13_M_widen_initEv
	movl	(%ebx), %eax
	movl	%ebx, %ecx
	movl	$10, (%esp)
	call	*24(%eax)
	subl	$4, %esp
	jmp	L189
	.p2align 4,,7
L190:
	movl	%ebx, %ecx
	call	__ZNKSt5ctypeIcE13_M_widen_initEv
	movl	(%ebx), %eax
	movl	%ebx, %ecx
	movl	$10, (%esp)
	call	*24(%eax)
	subl	$4, %esp
	jmp	L191
	.p2align 4,,7
L192:
	movl	%ebx, %ecx
	call	__ZNKSt5ctypeIcE13_M_widen_initEv
	movl	(%ebx), %eax
	movl	%ebx, %ecx
	movl	$10, (%esp)
	call	*24(%eax)
	subl	$4, %esp
	jmp	L193
	.p2align 4,,7
L194:
	movl	%ebx, %ecx
	call	__ZNKSt5ctypeIcE13_M_widen_initEv
	movl	(%ebx), %eax
	movl	%ebx, %ecx
	movl	$10, (%esp)
	call	*24(%eax)
	subl	$4, %esp
	jmp	L195
	.p2align 4,,7
L196:
	movl	%ebx, %ecx
	call	__ZNKSt5ctypeIcE13_M_widen_initEv
	movl	(%ebx), %eax
	movl	%ebx, %ecx
	movl	$10, (%esp)
	call	*24(%eax)
	subl	$4, %esp
	jmp	L197
	.p2align 4,,7
L198:
	movl	%ebx, %ecx
	call	__ZNKSt5ctypeIcE13_M_widen_initEv
	movl	(%ebx), %eax
	movl	%ebx, %ecx
	movl	$10, (%esp)
	call	*24(%eax)
	subl	$4, %esp
	jmp	L199
	.p2align 4,,7
L200:
	movl	%ebx, %ecx
	call	__ZNKSt5ctypeIcE13_M_widen_initEv
	movl	(%ebx), %eax
	movl	%ebx, %ecx
	movl	$10, (%esp)
	call	*24(%eax)
	subl	$4, %esp
	jmp	L201
	.p2align 4,,7
L202:
	movl	%ebx, %ecx
	call	__ZNKSt5ctypeIcE13_M_widen_initEv
	movl	(%ebx), %eax
	movl	%ebx, %ecx
	movl	$10, (%esp)
	call	*24(%eax)
	subl	$4, %esp
	jmp	L203
	.p2align 4,,7
L204:
	movl	%ebx, %ecx
	call	__ZNKSt5ctypeIcE13_M_widen_initEv
	movl	(%ebx), %eax
	movl	%ebx, %ecx
	movl	$10, (%esp)
	call	*24(%eax)
	subl	$4, %esp
	jmp	L205
	.p2align 4,,7
L206:
	movl	%ebx, %ecx
	call	__ZNKSt5ctypeIcE13_M_widen_initEv
	movl	(%ebx), %eax
	movl	%ebx, %ecx
	movl	$10, (%esp)
	call	*24(%eax)
	subl	$4, %esp
	jmp	L207
	.p2align 4,,7
L208:
	movl	%ebx, %ecx
	call	__ZNKSt5ctypeIcE13_M_widen_initEv
	movl	(%ebx), %eax
	movl	%ebx, %ecx
	movl	$10, (%esp)
	call	*24(%eax)
	subl	$4, %esp
	jmp	L209
	.p2align 4,,7
L210:
	movl	%ebx, %ecx
	call	__ZNKSt5ctypeIcE13_M_widen_initEv
	movl	(%ebx), %eax
	movl	%ebx, %ecx
	movl	$10, (%esp)
	call	*24(%eax)
	subl	$4, %esp
	jmp	L211
	.p2align 4,,7
L212:
	movl	%ebx, %ecx
	call	__ZNKSt5ctypeIcE13_M_widen_initEv
	movl	(%ebx), %eax
	movl	%ebx, %ecx
	movl	$10, (%esp)
	call	*24(%eax)
	subl	$4, %esp
	jmp	L213
	.p2align 4,,7
L214:
	movl	%ebx, %ecx
	call	__ZNKSt5ctypeIcE13_M_widen_initEv
	movl	(%ebx), %eax
	movl	%ebx, %ecx
	movl	$10, (%esp)
	call	*24(%eax)
	subl	$4, %esp
	jmp	L215
	.p2align 4,,7
L216:
	movl	%ebx, %ecx
	call	__ZNKSt5ctypeIcE13_M_widen_initEv
	movl	(%ebx), %eax
	movl	%ebx, %ecx
	movl	$10, (%esp)
	call	*24(%eax)
	subl	$4, %esp
	jmp	L217
	.p2align 4,,7
L218:
	movl	%ebx, %ecx
	call	__ZNKSt5ctypeIcE13_M_widen_initEv
	movl	(%ebx), %eax
	movl	%ebx, %ecx
	movl	$10, (%esp)
	call	*24(%eax)
	subl	$4, %esp
	jmp	L219
	.p2align 4,,7
L220:
	movl	%ebx, %ecx
	call	__ZNKSt5ctypeIcE13_M_widen_initEv
	movl	(%ebx), %eax
	movl	%ebx, %ecx
	movl	$10, (%esp)
	call	*24(%eax)
	subl	$4, %esp
	jmp	L221
	.p2align 4,,7
L222:
	movl	%ebx, %ecx
	call	__ZNKSt5ctypeIcE13_M_widen_initEv
	movl	(%ebx), %eax
	movl	%ebx, %ecx
	movl	$10, (%esp)
	call	*24(%eax)
	subl	$4, %esp
	jmp	L223
	.p2align 4,,7
L224:
	movl	%ebx, %ecx
	call	__ZNKSt5ctypeIcE13_M_widen_initEv
	movl	(%ebx), %eax
	movl	%ebx, %ecx
	movl	$10, (%esp)
	call	*24(%eax)
	subl	$4, %esp
	jmp	L225
L181:
	call	__ZSt16__throw_bad_castv
	.cfi_endproc
LFE1379:
	.p2align 4,,15
	.globl	__Z15Fight_ChuShiHuai
	.def	__Z15Fight_ChuShiHuai;	.scl	2;	.type	32;	.endef
__Z15Fight_ChuShiHuai:
LFB1380:
	.cfi_startproc
	movl	4(%esp), %eax
	cmpl	$1, %eax
	je	L295
	cmpl	$2, %eax
	jne	L299
	movl	$2, _Hero+188
	movl	$1, _Hero+20
	movl	$5, _Hero+24
	movl	$70, _Hero+8
	movl	$70, _Hero+4
	movl	$0, _Hero+16
	movl	$0, _Hero+12
	movl	$0, _Hero
	movl	$1, _Hero+28
	movl	$1, _Hero+152
	movb	$1, _Hero+49
	movb	$1, _Hero+50
	movl	$1, _Hero+156
	movl	$0, _Hero+160
	ret
	.p2align 4,,7
L299:
	movl	$1, _Hero+20
	movl	$3, _Hero+24
	movl	$50, _Hero+4
	movl	$0, _Hero
	movl	$1, _Hero+28
	movl	$0, _Hero+152
	movl	$1, _Hero+156
	movl	$0, _Hero+160
	ret
	.p2align 4,,7
L295:
	movl	$1, _Hero+188
	movl	$50, _Hero+20
	movl	$70, _Hero+24
	movl	$1000, _Hero+8
	movl	$1000, _Hero+4
	movl	$1, _Hero+16
	movl	$1, _Hero+12
	movl	$0, _Hero
	movl	$1, _Hero+28
	movl	$1, _Hero+152
	movb	$1, _Hero+49
	movl	$1, _Hero+156
	movl	$0, _Hero+160
	ret
	.cfi_endproc
LFE1380:
	.section .rdata,"dr"
	.align 4
LC124:
	.ascii "-                                  ***                                        -\0"
	.align 4
LC125:
	.ascii "-                                 *   *                                       -\0"
	.align 4
LC126:
	.ascii "-                               *  ***  *                                     -\0"
	.align 4
LC127:
	.ascii "-                                *  *  *                                      -\0"
	.align 4
LC128:
	.ascii "-                                 *****                                       -\0"
	.align 4
LC129:
	.ascii "-                                   *                                         -\0"
	.align 4
LC130:
	.ascii "-                                  * *                                        -\0"
	.align 4
LC131:
	.ascii "-   *                            \325\275\266\267\312\244\300\373\243\241                               *   -\0"
	.align 4
LC132:
	.ascii "------------------------------------------------------------------------------------------------------------------------------------------------------------\0"
	.align 4
LC133:
	.ascii "-                                                                                                                                                          -\0"
	.align 4
LC134:
	.ascii "-    *************************************************************************************************************************************************     -\0"
	.align 4
LC135:
	.ascii "-    *                                                                                                                                               *     -\0"
	.align 4
LC136:
	.ascii "-    *                                                                 \325\275\266\267\312\244\300\373\243\241\243\241\243\241                                                                *     -\0"
	.align 4
LC137:
	.ascii "-                                                        +                                                                                                 -\0"
	.align 4
LC138:
	.ascii "-                                                                                              +                                                           -\0"
	.align 4
LC139:
	.ascii "-                                                                                  +                                                                       -\0"
	.align 4
LC140:
	.ascii "-                                                                        *****                                                                             -\0"
	.align 4
LC141:
	.ascii "-                                                 +                *    *     *    *                                                                       -\0"
	.align 4
LC142:
	.ascii "-                                                                    *   *****   *                                                                         -\0"
	.align 4
LC143:
	.ascii "-                                                                      *   *   *                                                                           -\0"
	.align 4
LC144:
	.ascii "-                                                                +         *                                                                               -\0"
	.align 4
LC145:
	.ascii "-                                                                          *                                                                               -\0"
	.align 4
LC146:
	.ascii "-                                                                          *                  +                                                            -\0"
	.align 4
LC147:
	.ascii "-                                                +                         *                                                                               -\0"
	.align 4
LC148:
	.ascii "-                                                                         * *                             +                                                -\0"
	.align 4
LC149:
	.ascii "-                                                                        *   *                                                                             -\0"
	.align 4
LC150:
	.ascii "-                                                                       *     *                                                                            -\0"
	.align 4
LC151:
	.ascii "-                                                                      *       *                                                                           -\0"
	.align 4
LC152:
	.ascii "-   *                       \261\273\265\320\310\313\260\374\316\247\301\313\243\241\314\323\305\334\312\247\260\334\243\241                      *   -\0"
	.align 4
LC153:
	.ascii "-   *                              \314\345\301\246\262\273\327\343                               *   -\0"
	.align 4
LC154:
	.ascii "-                 \367\274\367\303\325\275\312\277.                                                    -\0"
	.align 4
LC155:
	.ascii "-                  *******                                                    -\0"
	.align 4
LC156:
	.ascii "-                **       **                                                  -\0"
	.align 4
LC157:
	.ascii "-               * ***   *** *                           /                     -\0"
	.align 4
LC158:
	.ascii "-              *  * *   * *  *                        /                       -\0"
	.align 4
LC159:
	.ascii "-              *  ***   ***  *                      /                         -\0"
	.align 4
LC160:
	.ascii "-               *           *                     /                           -\0"
	.align 4
LC161:
	.ascii "-                ***|||||***                    /                             -\0"
	.align 4
LC162:
	.ascii "-                   *****                  -  /                               -\0"
	.align 4
LC163:
	.ascii "-                                           -+-                               -\0"
	.align 4
LC164:
	.ascii "-                                          *** -                              -\0"
	.align 4
LC165:
	.ascii "-                                         *   *                               -\0"
	.align 4
LC166:
	.ascii "-                                          **  *                              -\0"
	.align 4
LC167:
	.ascii "-                                            *  *                             -\0"
	.align 4
LC168:
	.ascii "-               * ***   *** *                      /                          -\0"
	.align 4
LC169:
	.ascii "-              *  * *   * *  *                    /                           -\0"
	.align 4
LC170:
	.ascii "-              *  ***   ***  *                   /                            -\0"
	.align 4
LC171:
	.ascii "-               *           *                   /                             -\0"
	.align 4
LC172:
	.ascii "-                ***|||||***                   /                              -\0"
	.align 4
LC173:
	.ascii "-               * ***   *** *              |                                  -\0"
	.align 4
LC174:
	.ascii "-              *  * *   * *  *             |                                  -\0"
	.align 4
LC175:
	.ascii "-              *  ***   ***  *             |                                  -\0"
	.align 4
LC176:
	.ascii "-               *           *              |                                  -\0"
	.align 4
LC177:
	.ascii "-                ***|||||***               |                                  -\0"
	.align 4
LC178:
	.ascii "-                   *****                  |                                  -\0"
	.align 4
LC179:
	.ascii "-                                        --+--                                -\0"
	.align 4
LC180:
	.ascii "-                                          ***                                -\0"
	.align 4
LC181:
	.ascii "-               * ***   *** *       \\                                         -\0"
	.align 4
LC182:
	.ascii "-              *  * *   * *  *       \\                                        -\0"
	.align 4
LC183:
	.ascii "-              *  ***   ***  *        \\                                       -\0"
	.align 4
LC184:
	.ascii "-               *           *          \\                                      -\0"
	.align 4
LC185:
	.ascii "-                ***|||||***            \\                                     -\0"
	.align 4
LC186:
	.ascii "-                   *****                \\  -                                 -\0"
	.align 4
LC187:
	.ascii "-                                        -+-                                  -\0"
	.align 4
LC188:
	.ascii "-                                       -  ***                                -\0"
	.align 4
LC189:
	.ascii "-               * ***   *** *  \\                                              -\0"
	.align 4
LC190:
	.ascii "-              *  * *   * *  *   \\                                            -\0"
	.align 4
LC191:
	.ascii "-              *  ***   ***  *     \\                                          -\0"
	.align 4
LC192:
	.ascii "-               *           *        \\                                        -\0"
	.align 4
LC193:
	.ascii "-                ***|||||***           \\                                      -\0"
	.align 4
LC194:
	.ascii "-               * ***   *** ====                                              -\0"
	.align 4
LC195:
	.ascii "-              *  * *   * ========                                            -\0"
	.align 4
LC196:
	.ascii "-              *  ***   *** ====\\                                             -\0"
	.align 4
LC197:
	.ascii "-               *           *      \\                                          -\0"
	.align 4
LC198:
	.ascii "-                ***|||||***          \\                                       -\0"
	.align 4
LC199:
	.ascii "-   *                       \326\330\273\367\301\313\367\274\367\303\325\275\312\277\243\241\243\241\243\241                          *   -\0"
	.align 4
LC200:
	.ascii "-   *                        \326\330\273\367\301\313\367\274\367\303\325\275\312\277\243\241\243\241\243\241                         *   -\0"
	.align 4
LC201:
	.ascii "-   *                             <\0"
	.align 4
LC202:
	.ascii ">\11                              *   -\0"
	.align 4
LC203:
	.ascii "-                **       **       *                                          -\0"
	.align 4
LC204:
	.ascii "-               * ***   *** *     /                                           -\0"
	.align 4
LC205:
	.ascii "-              *  * *   * *  *   /                                            -\0"
	.align 4
LC206:
	.ascii "-              *  ***   ***  *  /                                             -\0"
	.align 4
LC207:
	.ascii "-               *           *  /                                              -\0"
	.align 4
LC208:
	.ascii "-                ***|||||***  /                                               -\0"
	.align 4
LC209:
	.ascii "-                   *****    /                                                -\0"
	.align 4
LC210:
	.ascii "-                           /                                                 -\0"
	.align 4
LC211:
	.ascii "-                                      |   ***                                -\0"
	.align 4
LC212:
	.ascii "-                      ----------------+--*   *                               -\0"
	.align 4
LC213:
	.ascii "-                                      |   **  *                              -\0"
	.align 4
LC214:
	.ascii "-                **       **           *                                      -\0"
	.align 4
LC215:
	.ascii "-               * ***   *** *        /                                        -\0"
	.align 4
LC216:
	.ascii "-              *  * *   * *  *     /                                          -\0"
	.align 4
LC217:
	.ascii "-              *  ***   ***  *   /                                            -\0"
	.align 4
LC218:
	.ascii "-                ***|||||*** /                                                -\0"
	.align 4
LC219:
	.ascii "-                   *****  /                                                  -\0"
	.align 4
LC220:
	.ascii "-               * ***   *** *                                                 -\0"
	.align 4
LC221:
	.ascii "-              *  * *   * *  *                                                -\0"
	.align 4
LC222:
	.ascii "-              *  ***   ***  *                                                -\0"
	.align 4
LC223:
	.ascii "-               *           *                                                 -\0"
	.align 4
LC224:
	.ascii "-                ***|||||***   ----*                                          -\0"
	.align 4
LC225:
	.ascii "-                   *****                                                     -\0"
	.align 4
LC226:
	.ascii "-               *           *  |                                              -\0"
	.align 4
LC227:
	.ascii "-                ***|||||***    |                                             -\0"
	.align 4
LC228:
	.ascii "-                   *****        |                                            -\0"
	.align 4
LC229:
	.ascii "-                ***|||||***   |                                              -\0"
	.align 4
LC230:
	.ascii "-                   *****      |                                              -\0"
	.align 4
LC231:
	.ascii "-                              |                                              -\0"
	.align 4
LC232:
	.ascii "-                            ==|=      |   ***                                -\0"
	.align 4
LC233:
	.ascii "-                      -----===|===----+--*   *                               -\0"
	.align 4
LC234:
	.ascii "-                            ==*==     |   **  *                              -\0"
	.align 4
LC235:
	.ascii "-                              =             *  *                             -\0"
	.align 4
LC236:
	.ascii "-   *                             \356\365\243\241\243\241\243\241                                *   -\0"
	.align 4
LC237:
	.ascii "-   *                      \267\300\323\371\327\241\301\313\367\274\367\303\325\275\312\277\265\304\271\245\273\367\243\241                       *   -\0"
	.align 4
LC238:
	.ascii "-   *                               <\0"
	.align 4
LC239:
	.ascii ">\11                          *   -\0"
	.align 4
LC240:
	.ascii "-   *  \323\302\325\337:                                                              *   -\0"
	.align 4
LC241:
	.ascii "-   *      \325\342\312\307\316\322\265\332\322\273\264\316\323\353\271\326\316\357\325\275\266\267\260\241\243\241                                     *   -\0"
	.align 4
LC242:
	.ascii "-   *          \324\365\303\264\304\334\314\323\305\334\304\330\243\241\243\277\243\241                                         *   -\0"
	.align 4
LC243:
	.ascii "-                                                       *** ^                 -\0"
	.align 4
LC244:
	.ascii "-                                                       *** |                 -\0"
	.align 4
LC245:
	.ascii "-               ***                                 __   *  |                 -\0"
	.align 4
LC246:
	.ascii "-              *   *  /                            |  |*****|                 -\0"
	.align 4
LC247:
	.ascii "-               ***  /                             |  |  *  |                 -\0"
	.align 4
LC248:
	.ascii "-                *  /                               \\/  ***                   -\0"
	.align 4
LC249:
	.ascii "-               **-+-                                   * *                   -\0"
	.align 4
LC250:
	.ascii "-                **                                     * *                   -\0"
	.align 4
LC251:
	.ascii "-                *                                                            -\0"
	.align 4
LC252:
	.ascii "-               * *                                                           -\0"
	.align 4
LC253:
	.ascii "-              *  *                                                           -\0"
	.align 4
LC254:
	.ascii "-                                             -                               -\0"
	.align 4
LC255:
	.ascii "-                             ***      -                                      -\0"
	.align 4
LC256:
	.ascii "-               ***           ***                                             -\0"
	.align 4
LC257:
	.ascii "-              *   *  /        *            -                                 -\0"
	.align 4
LC258:
	.ascii "-               ***====      *****  __                                        -\0"
	.align 4
LC259:
	.ascii "-                ==*--------*- *  *|  |                                       -\0"
	.align 4
LC260:
	.ascii "-               **-+==         *   |  |   -                                   -\0"
	.align 4
LC261:
	.ascii "-                **           ***   \\/        -                               -\0"
	.align 4
LC262:
	.ascii "-                *            * *                                             -\0"
	.align 4
LC263:
	.ascii "-               * *           * *                                             -\0"
	.align 4
LC264:
	.ascii "-   *      \260\241\243\241             \304\343\312\334\265\275\301\313\271\326\316\357\265\304\271\245\273\367                            *   -\0"
	.align 4
LC265:
	.ascii "-                                             -         *** ^                 -\0"
	.align 4
LC266:
	.ascii "-                                      -                *** |                 -\0"
	.align 4
LC267:
	.ascii "-              *   *  /                     -      |  |*****|                 -\0"
	.align 4
LC268:
	.ascii "-               **-+-                     -             * *                   -\0"
	.align 4
LC269:
	.ascii "-                **                           -         * *                   -\0"
	.align 4
LC270:
	.ascii "-   *                       \304\343\312\334\265\275\301\313\271\326\316\357\265\304\271\245\273\367                            *   -\0"
	.align 4
LC271:
	.ascii "-   *                       \271\245\273\367\301\313\367\274\367\303\325\275\312\277\243\241\243\241\243\241                          *   -\0"
	.align 4
LC272:
	.ascii "-               * ***   ***____=_____                                         -\0"
	.align 4
LC273:
	.ascii "-              *  * *   * |   ===    |                                        -\0"
	.align 4
LC274:
	.ascii "-              *  ***   **|    =\\=   |                                        -\0"
	.align 4
LC275:
	.ascii "-               *         |        \\ |                                        -\0"
	.align 4
LC276:
	.ascii "-                ***|||||*|          |\\                                       -\0"
	.align 4
LC277:
	.ascii "-                   ***** |          |   \\  -                                 -\0"
	.align 4
LC278:
	.ascii "-                         |          |   -+-                                  -\0"
	.align 4
LC279:
	.ascii "-                          \\        /   -  ***                                -\0"
	.align 4
LC280:
	.ascii "-                            \\    /       *   *                               -\0"
	.align 4
LC281:
	.ascii "-                              \\/          **  *                              -\0"
	.align 4
LC282:
	.ascii "-   *                           \271\245\273\367\261\273\270\361\265\262\301\313\243\241                            *   -\0"
	.align 4
LC283:
	.ascii ">\11                                  *   -\0"
	.align 4
LC284:
	.ascii "-                                 \304\343\261\273\311\261\313\300\301\313                                  -\0"
	.align 4
LC285:
	.ascii "-    GGGGG     A      M M    EEEEE           OOOOO   V   V   EEEEE   RRRR     -\0"
	.align 4
LC286:
	.ascii "-    G        A A    M M M   E               O   O   V   V   E       R   R    -\0"
	.align 4
LC287:
	.ascii "-    G   G   AAAAA   M M M   EEEEE           O   O   V   V   EEEEE   RRRR     -\0"
	.align 4
LC288:
	.ascii "-    G   G   A   A   M M M   E               O   O    V V    E       R  R     -\0"
	.align 4
LC289:
	.ascii "-    GGGGG   A   A   M M M   EEEEE           OOOOO     V     EEEEE   R   R    -\0"
	.align 4
LC290:
	.ascii "-                             Thanks For Playing                              -\0"
	.align 4
LC291:
	.ascii "-        Y   Y   OOOOO   U   U               DDDD    EEEEE     A     DDDD     -\0"
	.align 4
LC292:
	.ascii "-         Y Y    O   O   U   U               D   D   E        A A    D   D    -\0"
	.align 4
LC293:
	.ascii "-          Y     O   O   U   U               D   D   EEEEE   AAAAA   D   D    -\0"
	.align 4
LC294:
	.ascii "-          Y     O   O   U   U               D   D   E       A   A   D   D    -\0"
	.align 4
LC295:
	.ascii "-          Y     OOOOO    UUU                DDDD    EEEEE   A   A   DDDD     -\0"
	.align 4
LC296:
	.ascii "-                                    ***            __   *  |                 -\0"
	.align 4
LC297:
	.ascii "-             -                     *   *          |  |*****|                 -\0"
	.align 4
LC298:
	.ascii "-                                    ***           |  |  *  |                 -\0"
	.align 4
LC299:
	.ascii "-         -                           *             \\/  ***                   -\0"
	.align 4
LC300:
	.ascii "-                -                 |  **                * *                   -\0"
	.align 4
LC301:
	.ascii "-                       -----------+-**                 * *                   -\0"
	.align 4
LC302:
	.ascii "-      -                           |  *                                       -\0"
	.align 4
LC303:
	.ascii "-              -                     * *                                      -\0"
	.align 4
LC304:
	.ascii "-                                   *  *                                      -\0"
	.align 4
LC305:
	.ascii "-                                   *   *          |  |*****|                 -\0"
	.align 4
LC306:
	.ascii "-                                     *             \\/  ***                   -\0"
	.align 4
LC307:
	.ascii "-                                    **                 * *                   -\0"
	.align 4
LC308:
	.ascii "-                                     **\\ /             * *                   -\0"
	.align 4
LC309:
	.ascii "-                                     *  +                                    -\0"
	.align 4
LC310:
	.ascii "-                                    * */ \\                                   -\0"
	.align 4
LC311:
	.ascii "-                                   *  *   \\                                  -\0"
	.align 4
LC312:
	.ascii "-                                           \\                                 -\0"
	.align 4
LC313:
	.ascii "-                                    ** |               * *                   -\0"
	.align 4
LC314:
	.ascii "-                                     **+-----------    * *                   -\0"
	.align 4
LC315:
	.ascii "-                                     * |                                     -\0"
	.align 4
LC316:
	.ascii "-                                    * *                                      -\0"
	.align 4
LC317:
	.ascii "-                                    ***          ==__   *  |                 -\0"
	.align 4
LC318:
	.ascii "-                                   *   *        =/== |*****|                 -\0"
	.align 4
LC319:
	.ascii "-                                    ***       /  ==  |  *  |                 -\0"
	.align 4
LC320:
	.ascii "-                                     *     /       \\/  ***                   -\0"
	.align 4
LC321:
	.ascii "-                                    **| /              * *                   -\0"
	.align 4
LC322:
	.ascii "-                                     **+               * *                   -\0"
	.align 4
LC323:
	.ascii "-                                     *  |                                    -\0"
	.align 4
LC324:
	.ascii "-                                  |  **                * *                   -\0"
	.align 4
LC325:
	.ascii "-                                  |  *                                       -\0"
	.align 4
LC326:
	.ascii "-                                    *  *                                     -\0"
	.align 4
LC327:
	.ascii "-   *                                 !                                   *   -\0"
	.align 4
LC328:
	.ascii "-   *                               ! ! !                                 *   -\0"
	.align 4
LC329:
	.ascii "-                                      \\                                      -\0"
	.align 4
LC330:
	.ascii "-                                   -   \\                                     -\0"
	.align 4
LC331:
	.ascii "-                               -    -   \\              *** ^                 -\0"
	.align 4
LC332:
	.ascii "-                                     -   \\             *** |                 -\0"
	.align 4
LC333:
	.ascii "-                                    ***   \\  -     __   *  |                 -\0"
	.align 4
LC334:
	.ascii "-                                   *   *  -+-     |  |*****|                 -\0"
	.align 4
LC335:
	.ascii "-                                    ***  -*       |  |  *  |                 -\0"
	.align 4
LC336:
	.ascii "-                                     *   *         \\/  ***                   -\0"
	.align 4
LC337:
	.ascii "-                                    *****              * *                   -\0"
	.align 4
LC338:
	.ascii "-                                     *                 * *                   -\0"
	.align 4
LC339:
	.ascii "-   *                       -  -  -  -  -  -  -  -                        *   -\0"
	.align 4
LC340:
	.ascii "-                                                    =  *** ^                 -\0"
	.align 4
LC341:
	.ascii "-                                             =         *** |                 -\0"
	.align 4
LC342:
	.ascii "-                                    ***         ====_  ==  |                 -\0"
	.align 4
LC343:
	.ascii "-                                   *   * =   ====/====*****|                 -\0"
	.align 4
LC344:
	.ascii "-                                    ***       / ==== |  *= |                 -\0"
	.align 4
LC345:
	.ascii "-                                     *     /   =   \\/  ***                   -\0"
	.align 4
LC346:
	.ascii "-                                    **| /          =   * *                   -\0"
	.align 4
LC347:
	.ascii "-   *                         ! ! ! \320\375\267\347\325\266 ! ! !                          *   -\0"
	.align 4
LC348:
	.ascii "-                                                          ******************   ******************                                                         -\0"
	.align 4
LC349:
	.ascii "-                                                      *********************** ***********************                                                     -\0"
	.align 4
LC350:
	.ascii "-                                                    ***************************************************                                                   -\0"
	.align 4
LC351:
	.ascii "-                                                  *******************************************************                                                 -\0"
	.align 4
LC352:
	.ascii "-                                                **********************************************************                                                -\0"
	.align 4
LC353:
	.ascii "-                                            ******************************************************************                                            -\0"
	.align 4
LC354:
	.ascii "-                                          *******************************         ******************************                                          -\0"
	.align 4
LC355:
	.ascii "-                                        ***********************************     ***********************************                                       -\0"
	.align 4
LC356:
	.ascii "-                                                       |||||     |||||               |||||     |||||                                                      -\0"
	.align 4
LC357:
	.ascii "-                                                       |||||     |||*                 *|||     |||||                                                      -\0"
	.align 4
LC358:
	.ascii "-                                                       |||||      *          \241\374         *      |||||                                                      -\0"
	.align 4
LC359:
	.ascii "-                                                       |||||    *                         *    |||||                                                      -\0"
	.align 4
LC360:
	.ascii "-                                                       |||||  *                             *  |||||                                                      -\0"
	.align 4
LC361:
	.ascii "-                                                       |||||*                                 *|||||                                                      -\0"
	.align 4
LC362:
	.ascii "-                                                       |||*                                     *|||                                                      -\0"
	.align 4
LC363:
	.ascii "-                                                        *                                         *                                                       -\0"
	.align 4
LC364:
	.ascii "-                                                      *                                             *                                                     -\0"
	.align 4
LC365:
	.ascii "-    *                                                            \325\342\300\357\303\273\323\320\302\267\277\311\322\324\327\337orz                                                                *     -\0"
	.align 4
LC366:
	.ascii "-                                                       |||||      *          \241\375         *      |||||                                                      -\0"
	.align 4
LC367:
	.ascii "-                                        ********************************           ********************************                                       -\0"
	.align 4
LC368:
	.ascii "-                                                       |||||     |||||      ***      |||||     |||||                                                      -\0"
	.align 4
LC369:
	.ascii "-                                                       |||||     |||||       *       |||||     |||||                                                      -\0"
	.align 4
LC370:
	.ascii "-                                                       |||||     |||||    |\\***      |||||     |||||                                                      -\0"
	.align 4
LC371:
	.ascii "-                                                       |||||     |||*     |*|*        *|||     |||||                                                      -\0"
	.align 4
LC372:
	.ascii "-                                                       |||||      *       * |*          *      |||||                                                      -\0"
	.align 4
LC373:
	.ascii "-                                                       |||||    *         |/* *           *    |||||                                                      -\0"
	.align 4
LC374:
	.ascii "-                                                       |||||  *             *               *  |||||                                                      -\0"
	.align 4
LC375:
	.ascii "-    *                                                                    \263\366\317\326\271\326\316\357                                                                   *     -\0"
	.align 4
LC376:
	.ascii "-                                                                             *    *********    *                                                          -\0"
	.align 4
LC377:
	.ascii "-                                                                              * ************* *                                                           -\0"
	.align 4
LC378:
	.ascii "-                                                                               ***         ***                                                            -\0"
	.align 4
LC379:
	.ascii "-                                                                               ***          **                                                            -\0"
	.align 4
LC380:
	.ascii "-                                                                               **           **                                                            -\0"
	.align 4
LC381:
	.ascii "-                                                                                *           *                                                             -\0"
	.align 4
LC382:
	.ascii "-                                                                                 **       **                                                              -\0"
	.align 4
LC383:
	.ascii "-                                                                                   *******                                                                -\0"
	.align 4
LC384:
	.ascii "-                                                          /\\                                                                                              -\0"
	.align 4
LC385:
	.ascii "-                            ******************************||                                                                                              -\0"
	.align 4
LC386:
	.ascii "-                          *                               ||  *****                                                                                       -\0"
	.align 4
LC387:
	.ascii "-                        *---------------------------------||=*     *=]                                                                                    -\0"
	.align 4
LC388:
	.ascii "-                          *                               ||  *   *                                                                                       -\0"
	.align 4
LC389:
	.ascii "-                            ******************************||  *   *                                                                                       -\0"
	.align 4
LC390:
	.ascii "-                                                          \\/ *   *                                                                                        -\0"
	.align 4
LC391:
	.ascii "-                                                            *   *                                                                                         -\0"
	.align 4
LC392:
	.ascii "-                                                           *   *                                                                                          -\0"
	.align 4
LC393:
	.ascii "-                                                          *   *                                                                                           -\0"
	.align 4
LC394:
	.ascii "-                                                       \\ \\                   *    *********    *                                                          -\0"
	.align 4
LC395:
	.ascii "-                                                      \\ \\  \\                  * ************* *                                                           -\0"
	.align 4
LC396:
	.ascii "-                                                      \\  \\  \\                  ***         ***                                                            -\0"
	.align 4
LC397:
	.ascii "-                                                       \\  \\  \\                 ***          **                                                            -\0"
	.align 4
LC398:
	.ascii "-                                                        \\  \\  \\                **           **                                                            -\0"
	.align 4
LC399:
	.ascii "-                                                         \\  \\  \\                *           *                                                             -\0"
	.align 4
LC400:
	.ascii "-                                                          \\  \\  \\                **       **                                                              -\0"
	.align 4
LC401:
	.ascii "-                                                           \\  \\  \\ *               *******                                                                -\0"
	.align 4
LC402:
	.ascii "-                                                            \\  *                                                                                          -\0"
	.align 4
LC403:
	.ascii "-                                                           *    \\                                                                                         -\0"
	.align 4
LC404:
	.ascii "-                                                              *****                                                                                       -\0"
	.align 4
LC405:
	.ascii "-                                                             *     *                                                                                      -\0"
	.align 4
LC406:
	.ascii "-                                                              *   *\\                                                                                      -\0"
	.align 4
LC407:
	.ascii "-                                                              *   * *                                                                                     -\0"
	.align 4
LC408:
	.ascii "-                                                             *   *                                                                                        -\0"
	.align 4
LC409:
	.ascii "-                                                                        |                                                                                 -\0"
	.align 4
LC410:
	.ascii "-                                                                       |||   *    *********    *                                                          -\0"
	.align 4
LC411:
	.ascii "-                                                                      | | |   * ************* *                                                           -\0"
	.align 4
LC412:
	.ascii "-                                                                     |  |  |   ***         ***                                                            -\0"
	.align 4
LC413:
	.ascii "-                                                                     |  |  |   ***          **                                                            -\0"
	.align 4
LC414:
	.ascii "-                                                                     |  |  |   **           **                                                            -\0"
	.align 4
LC415:
	.ascii "-                                                                     |  |  |    *           *                                                             -\0"
	.align 4
LC416:
	.ascii "-                                                                     |  |  |     **       **                                                              -\0"
	.align 4
LC417:
	.ascii "-                                                                     |  |  |       *******                                                                -\0"
	.align 4
LC418:
	.ascii "-                                                                     |  |  |                                                                              -\0"
	.align 4
LC419:
	.ascii "-                                                                    /-------\\                                                                             -\0"
	.align 4
LC420:
	.ascii "-                                                                    \\-------/                                                                             -\0"
	.align 4
LC421:
	.ascii "-                                                                       ***                                                                                -\0"
	.align 4
LC422:
	.ascii "-                                                                      *   *                                                                               -\0"
	.align 4
LC423:
	.ascii "-                                                                   *   ***                                                                                -\0"
	.align 4
LC424:
	.ascii "-                                                                *   *   |                                                                                 -\0"
	.align 4
LC425:
	.ascii "-                                                             *   *      *                                                                                 -\0"
	.align 4
LC426:
	.ascii "-                                                                              *    *********    *                                                         -\0"
	.align 4
LC427:
	.ascii "-                                                                               * */ /********* *                                                          -\0"
	.align 4
LC428:
	.ascii "-                                                                              /    / /      ***                                                           -\0"
	.align 4
LC429:
	.ascii "-                                                                             /    /          **                                                           -\0"
	.align 4
LC430:
	.ascii "-                                                                            /    /    /      **                                                           -\0"
	.align 4
LC431:
	.ascii "-                                                                           /    /    /       *                                                            -\0"
	.align 4
LC432:
	.ascii "-                                                                          /    /    /      **                                                             -\0"
	.align 4
LC433:
	.ascii "-                                                                         /    /    /*******                                                               -\0"
	.align 4
LC434:
	.ascii "-                                                                        /    /    /                                                                       -\0"
	.align 4
LC435:
	.ascii "-                                                                      *     /    /                                                                        -\0"
	.align 4
LC436:
	.ascii "-                                                                           *    /                                                                         -\0"
	.align 4
LC437:
	.ascii "-                                                                          /     *                                                                         -\0"
	.align 4
LC438:
	.ascii "-                                                                *   * /                                                                                   -\0"
	.align 4
LC439:
	.ascii "-                                                             *   *   *                                                                                    -\0"
	.align 4
LC440:
	.ascii "-                                                                              *  =====******    *                                                         -\0"
	.align 4
LC441:
	.ascii "-                                                                              ====/ /===****** *                                                          -\0"
	.align 4
LC442:
	.ascii "-                                                                            ==/    / /===== ***                                                           -\0"
	.align 4
LC443:
	.ascii "-                                                                        =====/    /   =======**                                                           -\0"
	.align 4
LC444:
	.ascii "-                                                                         ===/    /    /===   **                                                           -\0"
	.align 4
LC445:
	.ascii "-                                                                          =/    /    /==     *                                                            -\0"
	.align 4
LC446:
	.ascii "-    *                                                            \271\245\273\367\301\313\276\253\301\351\301\324\310\313\243\241\243\241\243\241                                                               *     -\0"
	.align 4
LC447:
	.ascii "-    *                                                                 <\0"
	.align 4
LC448:
	.ascii ">\11                                                                     *     -\0"
	.align 4
LC449:
	.ascii "-    *                                                            \326\330\273\367\301\313\276\253\301\351\301\324\310\313\243\241\243\241\243\241                                                               *    -\0"
	.align 4
LC450:
	.ascii ">\11                                                                    *    -\0"
	.align 4
LC451:
	.ascii "-    *                                                                 \271\255\274\375\262\273\304\334\261\273\267\300\323\371                                                                *     -\0"
	.align 4
LC452:
	.ascii "-                                                                                                        *********                                         -\0"
	.align 4
LC453:
	.ascii "-                                        / / /                                                        * *********** *                                      -\0"
	.align 4
LC454:
	.ascii "-                                       /   / /                                                        **         **                                       -\0"
	.align 4
LC455:
	.ascii "-                           *******    /   /   /                                                        *         *                                        -\0"
	.align 4
LC456:
	.ascii "-                          *********  /   /   /                                                          **     **                                         -\0"
	.align 4
LC457:
	.ascii "-                          *       * /   /   /                                                             *****                                           -\0"
	.align 4
LC458:
	.ascii "-                          *       */   /   /                                                            /|  *                                             -\0"
	.align 4
LC459:
	.ascii "-                           *******/   /   /                                                            / |  ****                                          -\0"
	.align 4
LC460:
	.ascii "-                              * *    /   /                                                            |  | ** *                                           -\0"
	.align 4
LC461:
	.ascii "-                             ***    *   /                                                        *----|-*****                                             -\0"
	.align 4
LC462:
	.ascii "-                            ********    *                                                             *  |  *                                             -\0"
	.align 4
LC463:
	.ascii "-                              **  /                                                                   |  |  *                                             -\0"
	.align 4
LC464:
	.ascii "-                              *  *                                                                     \\ |  *                                             -\0"
	.align 4
LC465:
	.ascii "-                              *                                                                         \\| * *                                            -\0"
	.align 4
LC466:
	.ascii "-                             ***                                                                          *   *                                           -\0"
	.align 4
LC467:
	.ascii "-                            *   *                                                                         *   *                                           -\0"
	.align 4
LC468:
	.ascii "-                           *     *                                                                        *                                               -\0"
	.align 4
LC469:
	.ascii "-                          *      *                                                                        *                                               -\0"
	.align 4
LC470:
	.ascii "-                         *       *                                                                                                                        -\0"
	.align 4
LC471:
	.ascii "-                           *******/   /   /                                                        -   / |  *****                                         -\0"
	.align 4
LC472:
	.ascii "-                              * *    /   /                                                            | -| **   *                                         -\0"
	.align 4
LC473:
	.ascii "-                             ***    *   /                                                   *-------  | *|  * **                                          -\0"
	.align 4
LC474:
	.ascii "-                              **  /                                                                  -|  |  *                                             -\0"
	.align 4
LC475:
	.ascii "-                          *       */   /   /                                                   -        /|  *                                             -\0"
	.align 4
LC476:
	.ascii "-                           *******/   /   /                                            -               / |  *****                                         -\0"
	.align 4
LC477:
	.ascii "-                              * *    /   /                                     -            -     -   |  | **   *                                         -\0"
	.align 4
LC478:
	.ascii "-                             ***    *   /                                    *-------                 | *|  * **                                          -\0"
	.align 4
LC479:
	.ascii "-                            ********    *                                                        -    *  |  *                                             -\0"
	.align 4
LC480:
	.ascii "-                              **  /                                                     -             |  |  *                                             -\0"
	.align 4
LC481:
	.ascii "-                              *  *                                                             -       \\ |  *                                             -\0"
	.align 4
LC482:
	.ascii "-                          *********  /   /   /                                 -                        **     **                                         -\0"
	.align 4
LC483:
	.ascii "-                          *       */   /   /                                         -                  /|  *                                             -\0"
	.align 4
LC484:
	.ascii "-                           *******/   /   /                        -      -                            / |  *****                                         -\0"
	.align 4
LC485:
	.ascii "-                              * *    /   /                     -             -                        |  | **   *                                         -\0"
	.align 4
LC486:
	.ascii "-                             ***    *   /                 *-------      - -               -           | *|  * **                                          -\0"
	.align 4
LC487:
	.ascii "-                            ********    *                                             -               *  |  *                                             -\0"
	.align 4
LC488:
	.ascii "-                              **  /                                 -         -                       |  |  *                                             -\0"
	.align 4
LC489:
	.ascii "-                              *                                              -                          \\| * *                                            -\0"
	.align 4
LC490:
	.ascii "-                           *******/  =/   /                                                            / |  *****                                         -\0"
	.align 4
LC491:
	.ascii "-                              * *  =========                                                          |  | **   *                                         -\0"
	.align 4
LC492:
	.ascii "-                             *** ====*-------                                                         | *|  * **                                          -\0"
	.align 4
LC493:
	.ascii "-                            *******=======                                                            *  |  *                                             -\0"
	.align 4
LC494:
	.ascii "-                              **  / ==                                                                |  |  *                                             -\0"
	.align 4
LC495:
	.ascii "-    *                                                              \304\343\261\273\271\255\274\375\311\347\261\243\301\313\243\241                                                                 *     -\0"
	.align 4
LC496:
	.ascii "-    *                                                                   <\0"
	.align 4
LC497:
	.ascii ">\11                                                                     *    -\0"
	.align 4
LC498:
	.ascii "-    *                                                                 \314\345\301\246\262\273\327\343                                                                      *     -\0"
	.align 4
LC499:
	.ascii "-                             ***    *   /                                                             | *****                                             -\0"
	.align 4
LC500:
	.ascii "-                                                                                                     * *********** *                                      -\0"
	.align 4
LC501:
	.ascii "-                                                                                                      **         **                                       -\0"
	.align 4
LC502:
	.ascii "-                           *******                                                                     *         *                                        -\0"
	.align 4
LC503:
	.ascii "-                          *********                                                                     **     **                                         -\0"
	.align 4
LC504:
	.ascii "-                          *       *                                                                       *****                                           -\0"
	.align 4
LC505:
	.ascii "-                          *       *                                                                     /|  *                                             -\0"
	.align 4
LC506:
	.ascii "-                           *******                                                                     / |  ****                                          -\0"
	.align 4
LC507:
	.ascii "-                              *                                                                       |  | ** *                                           -\0"
	.align 4
LC508:
	.ascii "-                             ***                                                                      | *****                                             -\0"
	.align 4
LC509:
	.ascii "-                            *****                                                                     *  |  *                                             -\0"
	.align 4
LC510:
	.ascii "-                              ***\\                                                                    |  |  *                                             -\0"
	.align 4
LC511:
	.ascii "-                              *   *                                                                    \\ |  *                                             -\0"
	.align 4
LC512:
	.ascii "-                              *    \\   *                                                                \\| * *                                            -\0"
	.align 4
LC513:
	.ascii "-                             ***    *  \\                                                                  *   *                                           -\0"
	.align 4
LC514:
	.ascii "-                            *   **   \\  \\                                                                 *   *                                           -\0"
	.align 4
LC515:
	.ascii "-                           *     * \\  \\  \\                                                                *                                               -\0"
	.align 4
LC516:
	.ascii "-                           *      * \\  \\  \\                                                               *                                               -\0"
	.align 4
LC517:
	.ascii "-                           *       * \\  \\  \\                                                                                                              -\0"
	.align 4
LC518:
	.ascii "-                                      \\  \\  \\                                                                                                             -\0"
	.align 4
LC519:
	.ascii "-     ___________________*    ***                                                                      | *****                                             -\0"
	.align 4
LC520:
	.ascii "-    -                       ****                                                                      *  |  *                                             -\0"
	.align 4
LC521:
	.ascii "-   ---------------------*--****                                                                       |  |  *                                             -\0"
	.align 4
LC522:
	.ascii "-    -___________________      *                                                                        \\ |  *                                             -\0"
	.align 4
LC523:
	.ascii "-                        *     *                                                                         \\| * *                                            -\0"
	.align 4
LC524:
	.ascii "-                                    *******                                                            *         *                                        -\0"
	.align 4
LC525:
	.ascii "-                                   *********                                                            **     **                                         -\0"
	.align 4
LC526:
	.ascii "-                                   *       *                                                              *****                                           -\0"
	.align 4
LC527:
	.ascii "-                                   *       *                                                            /|  *                                             -\0"
	.align 4
LC528:
	.ascii "-                                    *******                                                            / |  ****                                          -\0"
	.align 4
LC529:
	.ascii "-                                       *    *___________________                                      |  | ** *                                           -\0"
	.align 4
LC530:
	.ascii "-                                      ***                       -                                     | *****                                             -\0"
	.align 4
LC531:
	.ascii "-                                      *****-*---------------------                                    *  |  *                                             -\0"
	.align 4
LC532:
	.ascii "-                                       *     ___________________-                                     |  |  *                                             -\0"
	.align 4
LC533:
	.ascii "-                                       *    *                                                          \\ |  *                                             -\0"
	.align 4
LC534:
	.ascii "-                                       *                                                                \\| * *                                            -\0"
	.align 4
LC535:
	.ascii "-                                      ***                                                                 *   *                                           -\0"
	.align 4
LC536:
	.ascii "-                                     *   *                                                                *   *                                           -\0"
	.align 4
LC537:
	.ascii "-                                     *    *                                                               *                                               -\0"
	.align 4
LC538:
	.ascii "-                                     *     *                                                              *                                               -\0"
	.align 4
LC539:
	.ascii "-                                     *      *                                                                                                             -\0"
	.align 4
LC540:
	.ascii "-                                                      *******                                          *         *                                        -\0"
	.align 4
LC541:
	.ascii "-                                                     *********                                          **     **                                         -\0"
	.align 4
LC542:
	.ascii "-                                                     *       *                                            *****                                           -\0"
	.align 4
LC543:
	.ascii "-                                                     *       *                                          /|  *                                             -\0"
	.align 4
LC544:
	.ascii "-                                                      *******                                          / |  ****                                          -\0"
	.align 4
LC545:
	.ascii "-                                                         *                                            |  | ** *                                           -\0"
	.align 4
LC546:
	.ascii "-                                ___________________*    ***                                           | *****                                             -\0"
	.align 4
LC547:
	.ascii "-                               -                       ****                                           *  |  *                                             -\0"
	.align 4
LC548:
	.ascii "-                              ---------------------*--****                                            |  |  *                                             -\0"
	.align 4
LC549:
	.ascii "-                               -___________________      *                                             \\ |  *                                             -\0"
	.align 4
LC550:
	.ascii "-                                                   *     *                                              \\| * *                                            -\0"
	.align 4
LC551:
	.ascii "-                                                        ***                                               *   *                                           -\0"
	.align 4
LC552:
	.ascii "-                                                       *   *                                              *   *                                           -\0"
	.align 4
LC553:
	.ascii "-                                                      *     *                                             *                                               -\0"
	.align 4
LC554:
	.ascii "-                                                     *      *                                             *                                               -\0"
	.align 4
LC555:
	.ascii "-                                                    *       *                                                                                             -\0"
	.align 4
LC556:
	.ascii "-                                                                        *******                        *         *                                        -\0"
	.align 4
LC557:
	.ascii "-                                                                       *********                        **     **                                         -\0"
	.align 4
LC558:
	.ascii "-                                                                       *       *                          *****                                           -\0"
	.align 4
LC559:
	.ascii "-                                                                       *       *                        /|  *                                             -\0"
	.align 4
LC560:
	.ascii "-                                                                        *******                        / |  ****                                          -\0"
	.align 4
LC561:
	.ascii "-                                                                           *    *___________________  |  | ** *                                           -\0"
	.align 4
LC562:
	.ascii "-                                                                          ***                       - | *****                                             -\0"
	.align 4
LC563:
	.ascii "-                                                                          *****-*---------------------*  |  *                                             -\0"
	.align 4
LC564:
	.ascii "-                                                                           *     ___________________- |  |  *                                             -\0"
	.align 4
LC565:
	.ascii "-                                                                           *    *                      \\ |  *                                             -\0"
	.align 4
LC566:
	.ascii "-                                                                           *                            \\| * *                                            -\0"
	.align 4
LC567:
	.ascii "-                                                                          ***                             *   *                                           -\0"
	.align 4
LC568:
	.ascii "-                                                                         *   *                            *   *                                           -\0"
	.align 4
LC569:
	.ascii "-                                                                         *    *                           *                                               -\0"
	.align 4
LC570:
	.ascii "-                                                                         *     *                          *                                               -\0"
	.align 4
LC571:
	.ascii "-                                                                         *      *                                                                         -\0"
	.align 4
LC572:
	.ascii "-                                                                           *                          |  | ** *                                           -\0"
	.align 4
LC573:
	.ascii "-                                                  ___________________*    ***                         | *****                                             -\0"
	.align 4
LC574:
	.ascii "-                                                 -                       ****                         *  |  *                                             -\0"
	.align 4
LC575:
	.ascii "-                                                ---------------------*--****                          |  |  *                                             -\0"
	.align 4
LC576:
	.ascii "-                                                 -___________________      *                           \\ |  *                                             -\0"
	.align 4
LC577:
	.ascii "-                                                                     *     *                            \\| * *                                            -\0"
	.align 4
LC578:
	.ascii "-                                                                        *     *                           *                                               -\0"
	.align 4
LC579:
	.ascii "-                                                                       *      *                           *                                               -\0"
	.align 4
LC580:
	.ascii "-                                                                      *       *                                                                          -\0"
	.align 4
LC581:
	.ascii "-    *                                                                        !                                                                      *     -\0"
	.align 4
LC582:
	.ascii "-                                                                          *******                      *         *                                        -\0"
	.align 4
LC583:
	.ascii "-                                                                         *********                      **     **                                         -\0"
	.align 4
LC584:
	.ascii "-                                                                         *       *                        *****                                           -\0"
	.align 4
LC585:
	.ascii "-                                                                         *       *                      /|  *                                             -\0"
	.align 4
LC586:
	.ascii "-                                                                          *******                      / |  ****                                          -\0"
	.align 4
LC587:
	.ascii "-                                                                             *    *_________________=====| ** *                                           -\0"
	.align 4
LC588:
	.ascii "-                                                                            ***                       -===***                                             -\0"
	.align 4
LC589:
	.ascii "-                                                                            *****-*---------------------====*                                             -\0"
	.align 4
LC590:
	.ascii "-                                                                             *     ___________________-===  *                                             -\0"
	.align 4
LC591:
	.ascii "-                                                                             *    *                 ==== |  *                                             -\0"
	.align 4
LC592:
	.ascii "-                                                                             *                          \\| * *                                            -\0"
	.align 4
LC593:
	.ascii "-                                                                            ***                           *   *                                           -\0"
	.align 4
LC594:
	.ascii "-                                                                           *   *                          *   *                                           -\0"
	.align 4
LC595:
	.ascii "-                                                                          *     *                         *                                               -\0"
	.align 4
LC596:
	.ascii "-                                                                          *      *                        *                                               -\0"
	.align 4
LC597:
	.ascii "-                                                                          *       *                                                                       -\0"
	.align 4
LC598:
	.ascii "-    *                                                                     !  !  !                                                                   *     -\0"
	.align 4
LC599:
	.ascii "-                                                                                 |                                                                        -\0"
	.align 4
LC600:
	.ascii "-                                                                              |  |  |                                                                     -\0"
	.align 4
LC601:
	.ascii "-                                                                              |  |  |                   *********                                         -\0"
	.align 4
LC602:
	.ascii "-                                                                        ******|  |  |                * *********** *                                      -\0"
	.align 4
LC603:
	.ascii "-                                                                       *******|  |  |                 **         **                                       -\0"
	.align 4
LC604:
	.ascii "-                                                                       *     *   *   *                 *         *                                        -\0"
	.align 4
LC605:
	.ascii "-                                                                       *       * |                      **     **                                         -\0"
	.align 4
LC606:
	.ascii "-                                                                        *******  *                        *****                                           -\0"
	.align 4
LC607:
	.ascii "-                                                                           *   * |                      /|  *                                             -\0"
	.align 4
LC608:
	.ascii "-                                                                          ****   *                     / |  ****                                          -\0"
	.align 4
LC609:
	.ascii "-                                                                           *                          | *****                                             -\0"
	.align 4
LC610:
	.ascii "-                                                                           *                          *  |  *                                             -\0"
	.align 4
LC611:
	.ascii "-                                                                           *                          |  |  *                                             -\0"
	.align 4
LC612:
	.ascii "-                                                                          ***                          \\ |  *                                             -\0"
	.align 4
LC613:
	.ascii "-                                                                         *   *                          \\| * *                                            -\0"
	.align 4
LC614:
	.ascii "-                                                                          *   *                           *   *                                           -\0"
	.align 4
LC615:
	.ascii "-                                                                          *    *                          *   *                                           -\0"
	.align 4
LC616:
	.ascii "-                                                                                                          *                                               -\0"
	.align 4
LC617:
	.ascii "-    *                                                             -  -  -  -  -  -  -  -                                                            *     -\0"
	.align 4
LC618:
	.ascii "-                                                                       *       *                  =     /|  *                                             -\0"
	.align 4
LC619:
	.ascii "-                                                                           **                =    =   |  | ** *                                           -\0"
	.align 4
LC620:
	.ascii "-                                                                          ***                         | =****                                             -\0"
	.align 4
LC621:
	.ascii "-                                                                          ***    *_____________=___===*  |  *    =                                        -\0"
	.align 4
LC622:
	.ascii "-                                                                           * *            =      ======  |  *                                             -\0"
	.align 4
LC623:
	.ascii "-                                                                           **-*--*--------------========= |  *       =                                    -\0"
	.align 4
LC624:
	.ascii "-                                                                           *      __________=_____======\\| * *                                            -\0"
	.align 4
LC625:
	.ascii "-                                                                          ***    *                      = *   *                                           -\0"
	.align 4
LC626:
	.ascii "-                                                                         *   *                  =    =  = *   *                                           -\0"
	.align 4
LC627:
	.ascii "-                                                                     * * * *                  =           *                                               -\0"
	.align 4
LC628:
	.ascii "-                                                                      *   *                               *                                               -\0"
	.align 4
LC629:
	.ascii "-    *                                                            \243\241\243\241\243\241\320\375\267\347\325\266\243\241\243\241\243\241                                                                 *     -\0"
	.align 4
LC630:
	.ascii "-                                                                        \271\276\340\340\271\276\340\340...             *****************                                         -\0"
	.align 4
LC631:
	.ascii "-                                                                                           *                         *                                    -\0"
	.align 4
LC632:
	.ascii "-                                                                                        *                               *                                 -\0"
	.align 4
LC633:
	.ascii "-                                                                                      *                                   *                               -\0"
	.align 4
LC634:
	.ascii "-                                                                                    *                                       *                             -\0"
	.align 4
LC635:
	.ascii "-                           *******                                                *                                           *                           -\0"
	.align 4
LC636:
	.ascii "-                          *********                                              *            ###               ###            *                          -\0"
	.align 4
LC637:
	.ascii "-                          *       *                                             *                                               *                         -\0"
	.align 4
LC638:
	.ascii "-                          *       *                                            *                                                 *                        -\0"
	.align 4
LC639:
	.ascii "-                           *******                                            *                                                   *                       -\0"
	.align 4
LC640:
	.ascii "-                              *                                               *                                                   *                       -\0"
	.align 4
LC641:
	.ascii "-                             ***                                              *                                                   *                       -\0"
	.align 4
LC642:
	.ascii "-                            * * *                                              *                                                 *                        -\0"
	.align 4
LC643:
	.ascii "-                           *  *  *                                              *                                               *                         -\0"
	.align 4
LC644:
	.ascii "-                              *                                                  *                                             *                          -\0"
	.align 4
LC645:
	.ascii "-                              *                                                   **                                         **                           -\0"
	.align 4
LC646:
	.ascii "-                             ***                                                    **                                     **                             -\0"
	.align 4
LC647:
	.ascii "-                            *   *                                                     *************************************                               -\0"
	.align 4
LC648:
	.ascii "-                           *     *                                                                                                                        -\0"
	.align 4
LC649:
	.ascii "-                          *      *                                                                                                                        -\0"
	.align 4
LC650:
	.ascii "-                                     \243\241\243\241\243\241                                         *                                       *                             -\0"
	.align 4
LC651:
	.ascii "-                      *       *                                                  *                                             *                          -\0"
	.align 4
LC652:
	.ascii "-                     **       *                                                   **                                         **                           -\0"
	.align 4
LC653:
	.ascii "-                    * *      ***                                                    **                                     **                             -\0"
	.align 4
LC654:
	.ascii "-                    *  *    *   *                                                     *************************************                               -\0"
	.align 4
LC655:
	.ascii "-                    *   *  *     *     *                                                                                                                  -\0"
	.align 4
LC656:
	.ascii "-                      *   *      *    * *                                                                                                                 -\0"
	.align 4
LC657:
	.ascii "-                     **  *       *   *  *                                                                                                                 -\0"
	.align 4
LC658:
	.ascii "-                     * *                                                                                                                                  -\0"
	.align 4
LC659:
	.ascii "-                                     \260\241 \311\355\314\345\261\273\300\246\306\360\300\264\301\313                                *                                   *                               -\0"
	.align 4
LC660:
	.ascii "-                            *****                                             *                                                   *                       -\0"
	.align 4
LC661:
	.ascii "-                        *  ******                                              *                                                 *                        -\0"
	.align 4
LC662:
	.ascii "-                     *  *    *****                                              *                                               *                         -\0"
	.align 4
LC663:
	.ascii "-                   *  *       ***   *                                            *                                             *                          -\0"
	.align 4
LC664:
	.ascii "-                  *  *        *   *   *                                           **                                         **                           -\0"
	.align 4
LC665:
	.ascii "-                  *   *      ***    *   *                                           **                                     **                             -\0"
	.align 4
LC666:
	.ascii "-                  *    *    *   *    *   *                                            *************************************                               -\0"
	.align 4
LC667:
	.ascii "-                  *     *****    *    *   *                                                                                                               -\0"
	.align 4
LC668:
	.ascii "-                      *  **      *    *    *                                                                                                              -\0"
	.align 4
LC669:
	.ascii "-                     *  **       *   *    *                                                                                                               -\0"
	.align 4
LC670:
	.ascii "-                     *  *                                                                                                                                 -\0"
	.align 4
LC671:
	.ascii "-                                     \264\245\312\326\324\365\303\264\360\244\360\244\265\304 \337\355                                *                                   *                               -\0"
	.align 4
LC672:
	.ascii "-                           *******   *                                        *                                                   *                       -\0"
	.align 4
LC673:
	.ascii "-               *              *       **                                      *                                                   *                       -\0"
	.align 4
LC674:
	.ascii "-             **             *****      * *                                    *                                                   *                       -\0"
	.align 4
LC675:
	.ascii "-            * *         *  ******      *  *                                    *                                                 *                        -\0"
	.align 4
LC676:
	.ascii "-           *  *      *  *    *****     *  *                                     *                                               *                         -\0"
	.align 4
LC677:
	.ascii "-           *  *    *  *       ***   *                                            *                                             *                          -\0"
	.align 4
LC678:
	.ascii "-                  *   *       *   *   *                                           **                                         **                           -\0"
	.align 4
LC679:
	.ascii "-                                     \260\241                                               *                                   *                               -\0"
	.align 4
LC680:
	.ascii "-                      *   *       ** *                                         *                                                 *                        -\0"
	.align 4
LC681:
	.ascii "-                       *** ******* ** *                                       *                                                   *                       -\0"
	.align 4
LC682:
	.ascii "-                   * *  ***   *  *   *   *                                    *                                                   *                       -\0"
	.align 4
LC683:
	.ascii "-                 *     *    *****      *   *                                  *                                                   *                       -\0"
	.align 4
LC684:
	.ascii "-               *    *   *  ******       *    *                                 *                                                 *                        -\0"
	.align 4
LC685:
	.ascii "-            *    *   *  *    ******      *     *                                *                                               *                         -\0"
	.align 4
LC686:
	.ascii "-                                                                                                *****************                                         -\0"
	.align 4
LC687:
	.ascii "-              \272\364 \327\334\313\343\325\365\315\321\277\252\301\313           / / /                                         *                                   *                               -\0"
	.align 4
LC688:
	.ascii "-                                       /   / /                                      *                                       *                             -\0"
	.align 4
LC689:
	.ascii "-                           *******    /   /   /                                   *                                           *                           -\0"
	.align 4
LC690:
	.ascii "-                          *********  /   /   /                                   *          ###                  ###           *                          -\0"
	.align 4
LC691:
	.ascii "-                          *       * /   /   /                                   *                                               *                         -\0"
	.align 4
LC692:
	.ascii "-                          *       */   /   /                                   *                                                 *                        -\0"
	.align 4
LC693:
	.ascii "-                           *******/   /   /                                   *                                                   *                       -\0"
	.align 4
LC694:
	.ascii "-                              * *    /   /                                    *                                                   *                       -\0"
	.align 4
LC695:
	.ascii "-                             ***    *   /                                     *                                                   *                       -\0"
	.align 4
LC696:
	.ascii "-                            ********    *                                      *                                                 *                        -\0"
	.align 4
LC697:
	.ascii "-                              **  /                                             *                                               *                         -\0"
	.align 4
LC698:
	.ascii "-                              *  *                                               *                                             *                          -\0"
	.align 4
LC699:
	.ascii "-    *                                                              \304\343\261\273Slime\270\247\303\376\301\313                                                                  *     -\0"
	.align 4
LC700:
	.ascii "-                                                          *****************     *****************                                                         -\0"
	.align 4
LC701:
	.ascii "-                                                  **************                           **************                                                 -\0"
	.align 4
LC702:
	.ascii "-                                                *************        *****************        ************                                                -\0"
	.align 4
LC703:
	.ascii "-                                            ***************     *                         *     **************                                            -\0"
	.align 4
LC704:
	.ascii "-                                          ***************    *                               *    **************                                          -\0"
	.align 4
LC705:
	.ascii "-                                        ****************   *                                   *   ****************                                       -\0"
	.align 4
LC706:
	.ascii "-                                        ***************  *                                       *  ***************                                       -\0"
	.align 4
LC707:
	.ascii "-                                        **************  *          ###               ###          *  **************                                       -\0"
	.align 4
LC708:
	.ascii "-                                        *************  *                                           *  *************                                       -\0"
	.align 4
LC709:
	.ascii "-                                                     *                                               *                                                    -\0"
	.align 4
LC710:
	.ascii "-                                                       *                                           *                                                      -\0"
	.align 4
LC711:
	.ascii "-                                                         **                                     **                                                        -\0"
	.align 4
LC712:
	.ascii "-                                                           **                                 **                                                          -\0"
	.align 4
LC713:
	.ascii "-                                                          *  *********************************  *                                                         -\0"
	.align 4
LC714:
	.ascii "-    *                                                           BOSS <Slime> \263\366\317\326\301\313\243\241\243\241\243\241                                                           *     -\0"
	.align 4
LC715:
	.ascii "-    *                                                              \304\343\262\273\304\334\265\326\265\262Slime\265\304\271\245\273\367                                                            *     -\0"
	.align 4
LC716:
	.ascii "-                                        / / /                                         *                                   *                               -\0"
	.align 4
LC717:
	.ascii "-                                                                *******           *                                           *                           -\0"
	.align 4
LC718:
	.ascii "-                                                               *********         *          ###                  ###           *                          -\0"
	.align 4
LC719:
	.ascii "-                                                               *       *        *                                               *                         -\0"
	.align 4
LC720:
	.ascii "-                                -                              *       *       *                                                 *                        -\0"
	.align 4
LC721:
	.ascii "-                                                                *******       *                                                   *                       -\0"
	.align 4
LC722:
	.ascii "-               -                                                   *          *                                                   *                       -\0"
	.align 4
LC723:
	.ascii "-                                                                  ***         *                                                   *                       -\0"
	.align 4
LC724:
	.ascii "-                     -                  ____________________*    ***           *                                                 *                        -\0"
	.align 4
LC725:
	.ascii "-                                       -                        *  *            *                                               *                         -\0"
	.align 4
LC726:
	.ascii "-                                      ----------------------*--*-* *             *                                             *                          -\0"
	.align 4
LC727:
	.ascii "-             -                         -____________________       *              **                                         **                           -\0"
	.align 4
LC728:
	.ascii "-                                                            *     ***               **                                     **                             -\0"
	.align 4
LC729:
	.ascii "-                            -                                    *   *                *************************************                               -\0"
	.align 4
LC730:
	.ascii "-                                                                *     *                                                                                   -\0"
	.align 4
LC731:
	.ascii "-                                                               *      *                                                                                   -\0"
	.align 4
LC732:
	.ascii "-                                                              *       *                                                                                   -\0"
	.align 4
LC733:
	.ascii "-                                                              *******             *                                           *                           -\0"
	.align 4
LC734:
	.ascii "-                                                             *********           *          ###                  ###           *                          -\0"
	.align 4
LC735:
	.ascii "-                                                             *       *          *                                               *                         -\0"
	.align 4
LC736:
	.ascii "-                                                             *       *         *      ======                                     *                        -\0"
	.align 4
LC737:
	.ascii "-                                                              ******* *____________________===                                    *                       -\0"
	.align 4
LC738:
	.ascii "-                                                                 *                         -====                                  *                       -\0"
	.align 4
LC739:
	.ascii "-                                                               ******-*----------------------======                               *                       -\0"
	.align 4
LC740:
	.ascii "-                                                                ***    ____________________-====                                 *                        -\0"
	.align 4
LC741:
	.ascii "-                                                                 *    *         *   =========                                   *                         -\0"
	.align 4
LC742:
	.ascii "-                                                                 *               *    ==                                       *                          -\0"
	.align 4
LC743:
	.ascii "-                                                                 *                **                                         **                           -\0"
	.align 4
LC744:
	.ascii "-                                                                ***                 **                                     **                             -\0"
	.align 4
LC745:
	.ascii "-                                                               *   *                  *************************************                               -\0"
	.align 4
LC746:
	.ascii "-                                                              *     *                                                                                     -\0"
	.align 4
LC747:
	.ascii "-                                                             *      *                                                                                     -\0"
	.align 4
LC748:
	.ascii "-                                                            *       *                                                                                     -\0"
	.align 4
LC749:
	.ascii "-    *                                                                \271\245\273\367\301\313Slime\243\241                                                                  *     -\0"
	.align 4
LC750:
	.ascii "-    *                                                                \326\330\273\367\301\313Slime\243\241                                                                  *     -\0"
	.align 4
LC751:
	.ascii "-             -                                                 *       *        *                                               *                         -\0"
	.align 4
LC752:
	.ascii "-               -                           -                       *          *                                                   *                       -\0"
	.align 4
LC753:
	.ascii "-                                                       -          ***         *                                                   *                       -\0"
	.align 4
LC754:
	.ascii "-        -                              -                        *  *            *                                               *                         -\0"
	.align 4
LC755:
	.ascii "-                     -                 -____________________       *              **                                         **                           -\0"
	.align 4
LC756:
	.ascii "-            -                           -                       *     *                                                                                   -\0"
	.align 4
LC757:
	.ascii "-    *                                                                     \243\241                                                                        *     -\0"
	.align 4
LC758:
	.ascii "-    *                                                                   \243\241\243\241\243\241                                                                      *     -\0"
	.align 4
LC759:
	.ascii "-                                                                       |                                                                                  -\0"
	.align 4
LC760:
	.ascii "-                                                                    |  |  |                                                                               -\0"
	.align 4
LC761:
	.ascii "-                                                                    |  |  |                     *****************                                         -\0"
	.align 4
LC762:
	.ascii "-                                                                    |  |  |                *                         *                                    -\0"
	.align 4
LC763:
	.ascii "-                                                                    |  |  |             *                               *                                 -\0"
	.align 4
LC764:
	.ascii "-                                                              ******|  |  |           *                                   *                               -\0"
	.align 4
LC765:
	.ascii "-                                                             *******|  |  |         *                                       *                             -\0"
	.align 4
LC766:
	.ascii "-                                                             *     *   *   *      *                                           *                           -\0"
	.align 4
LC767:
	.ascii "-                                                             *       * |         *          ###                  ###           *                          -\0"
	.align 4
LC768:
	.ascii "-                                                              *******  *        *                                               *                         -\0"
	.align 4
LC769:
	.ascii "-                                                                 *   * |       *                                                 *                        -\0"
	.align 4
LC770:
	.ascii "-                                                                ****   *      *                                                   *                       -\0"
	.align 4
LC771:
	.ascii "-                                                                 *            *                                                   *                       -\0"
	.align 4
LC772:
	.ascii "-                                                                 *             *                                                 *                        -\0"
	.align 4
LC773:
	.ascii "-                                                                 *              *                                               *                         -\0"
	.align 4
LC774:
	.ascii "-                                                                ***              *                                             *                          -\0"
	.align 4
LC775:
	.ascii "-                                                               *   *              **                                         **                           -\0"
	.align 4
LC776:
	.ascii "-                                                                *   *               **                                     **                             -\0"
	.align 4
LC777:
	.ascii "-                                                              *   *                                                                                       -\0"
	.align 4
LC778:
	.ascii "-                                                             *       *         *      =                                          *                        -\0"
	.align 4
LC779:
	.ascii "-                                                              *******         *               =                                   *                       -\0"
	.align 4
LC780:
	.ascii "-                                                                 **           * *         =                                       *                       -\0"
	.align 4
LC781:
	.ascii "-                                                                ***           *       =       =   =                               *                       -\0"
	.align 4
LC782:
	.ascii "-                                                                ***    *_________*______=_=====     =                            *                        -\0"
	.align 4
LC783:
	.ascii "-                                                                 * *                  =      -==                                *                         -\0"
	.align 4
LC784:
	.ascii "-                                                                 **-*--*-----------------------===                             *                          -\0"
	.align 4
LC785:
	.ascii "-                                                                *       _______________=_____-==   =                         **                           -\0"
	.align 4
LC786:
	.ascii "-                                                                ***    *           **   = ==== =                           **                             -\0"
	.align 4
LC787:
	.ascii "-                                                               *   *                 **************************************                               -\0"
	.align 4
LC788:
	.ascii "-                                                           * * * *                                                                                        -\0"
	.align 4
LC789:
	.ascii "-                                          *******************************  |||||  ******************************                                          -\0"
	.align 4
LC790:
	.ascii "-                                        ***********************************|||||***********************************                                       -\0"
	.align 4
LC791:
	.ascii "-                                                       |||||     |||||     |||||     |||||     |||||                                                      -\0"
	.align 4
LC792:
	.ascii "-                                                       |||||     |||||    *******    |||||     |||||                                                      -\0"
	.align 4
LC793:
	.ascii "-                                                       |||||     |||||  *  *=+=*  *  |||||     |||||                                                      -\0"
	.align 4
LC794:
	.ascii "-                                                       |||||     |||||*    *   *    *|||||     |||||                                                      -\0"
	.align 4
LC795:
	.ascii "-                                                       |||||     |||*      *****      *|||     |||||                                                      -\0"
	.align 4
LC796:
	.ascii "-                                                       |||||      *        \261\246\262\330\241\374       *      |||||                                                      -\0"
	.align 4
LC797:
	.ascii "-    *                                                                 \325\322\265\275\301\313\243\241\275\243\323\315\243\241                                                                *     -\0"
	.align 4
LC798:
	.ascii "-    *                                                                   \315\277\324\332\275\243\311\317                                                                    *     -\0"
	.align 4
LC799:
	.ascii "-    *                                                                  <\271\245\273\367\301\246+3>                                                                   *     -\0"
	.align 4
LC800:
	.ascii "-    *                                                                \325\322\265\275\301\313\243\241\312\245\241\342\313\256\243\241                                                               *     -\0"
	.align 4
LC801:
	.ascii "-    *                                                                    \272\310\317\302\310\245                                                                     *     -\0"
	.align 4
LC802:
	.ascii "-    *                                                                   <\321\252\301\277+30>                                                                   *     -\0"
	.text
	.p2align 4,,15
	.globl	__Z2CGii
	.def	__Z2CGii;	.scl	2;	.type	32;	.endef
__Z2CGii:
LFB1381:
	.cfi_startproc
	pushl	%ebp
	.cfi_def_cfa_offset 8
	.cfi_offset 5, -8
	movl	%esp, %ebp
	.cfi_def_cfa_register 5
	pushl	%esi
	pushl	%ebx
	subl	$16, %esp
	.cfi_offset 6, -12
	.cfi_offset 3, -16
	movl	8(%ebp), %eax
	movl	12(%ebp), %ebx
	testl	%eax, %eax
	je	L361
	cmpl	$1, %eax
	je	L362
	cmpl	$2, %eax
	je	L363
	cmpl	$3, %eax
	.p2align 4,,2
	je	L364
	cmpl	$4, %eax
	.p2align 4,,2
	je	L365
	cmpl	$5, %eax
	.p2align 4,,2
	je	L366
	cmpl	$6, %eax
	.p2align 4,,2
	je	L367
	cmpl	$7, %eax
	.p2align 4,,2
	je	L368
	cmpl	$8, %eax
	.p2align 4,,2
	je	L369
	cmpl	$9, %eax
	.p2align 4,,2
	je	L370
	cmpl	$10, %eax
	.p2align 4,,2
	je	L371
	cmpl	$11, %eax
	.p2align 4,,2
	je	L372
	cmpl	$12, %eax
	.p2align 4,,2
	je	L373
	cmpl	$13, %eax
	.p2align 4,,2
	je	L374
	cmpl	$14, %eax
	.p2align 4,,2
	je	L375
	cmpl	$15, %eax
	.p2align 4,,2
	je	L376
	cmpl	$16, %eax
	.p2align 4,,2
	je	L377
	cmpl	$17, %eax
	.p2align 4,,2
	je	L378
	cmpl	$18, %eax
	.p2align 4,,2
	je	L379
	cmpl	$19, %eax
	.p2align 4,,2
	je	L380
	cmpl	$20, %eax
	.p2align 4,,2
	je	L381
	cmpl	$21, %eax
	.p2align 4,,2
	je	L382
	cmpl	$22, %eax
	.p2align 4,,2
	je	L383
	cmpl	$23, %eax
	.p2align 4,,2
	je	L384
	cmpl	$24, %eax
	.p2align 4,,2
	je	L385
	cmpl	$25, %eax
	.p2align 4,,2
	je	L386
	cmpl	$26, %eax
	.p2align 4,,2
	je	L387
	cmpl	$27, %eax
	.p2align 4,,2
	je	L388
	cmpl	$28, %eax
	.p2align 4,,2
	je	L389
	cmpl	$29, %eax
	.p2align 4,,2
	je	L390
	cmpl	$30, %eax
	.p2align 4,,2
	je	L391
L300:
	leal	-8(%ebp), %esp
	popl	%ebx
	.cfi_remember_state
	.cfi_restore 3
	popl	%esi
	.cfi_restore 6
	popl	%ebp
	.cfi_restore 5
	.cfi_def_cfa 4, 4
	ret
	.p2align 4,,7
L361:
	.cfi_restore_state
	movl	$LC1, (%esp)
	call	_system
	cmpl	$1, %ebx
	je	L392
	movl	$LC132, 4(%esp)
	movl	$__ZSt4cout, (%esp)
	call	__ZStlsISt11char_traitsIcEERSt13basic_ostreamIcT_ES5_PKc
	movl	%eax, (%esp)
	call	__ZSt4endlIcSt11char_traitsIcEERSt13basic_ostreamIT_T0_ES6_
	movl	$LC133, 4(%esp)
	movl	$__ZSt4cout, (%esp)
	call	__ZStlsISt11char_traitsIcEERSt13basic_ostreamIcT_ES5_PKc
	movl	%eax, (%esp)
	call	__ZSt4endlIcSt11char_traitsIcEERSt13basic_ostreamIT_T0_ES6_
	movl	$LC133, 4(%esp)
	movl	$__ZSt4cout, (%esp)
	call	__ZStlsISt11char_traitsIcEERSt13basic_ostreamIcT_ES5_PKc
	movl	%eax, (%esp)
	call	__ZSt4endlIcSt11char_traitsIcEERSt13basic_ostreamIT_T0_ES6_
	movl	$LC133, 4(%esp)
	movl	$__ZSt4cout, (%esp)
	call	__ZStlsISt11char_traitsIcEERSt13basic_ostreamIcT_ES5_PKc
	movl	%eax, (%esp)
	call	__ZSt4endlIcSt11char_traitsIcEERSt13basic_ostreamIT_T0_ES6_
	movl	$LC133, 4(%esp)
	movl	$__ZSt4cout, (%esp)
	call	__ZStlsISt11char_traitsIcEERSt13basic_ostreamIcT_ES5_PKc
	movl	%eax, (%esp)
	call	__ZSt4endlIcSt11char_traitsIcEERSt13basic_ostreamIT_T0_ES6_
	movl	$LC133, 4(%esp)
	movl	$__ZSt4cout, (%esp)
	call	__ZStlsISt11char_traitsIcEERSt13basic_ostreamIcT_ES5_PKc
	movl	%eax, (%esp)
	call	__ZSt4endlIcSt11char_traitsIcEERSt13basic_ostreamIT_T0_ES6_
	movl	$LC133, 4(%esp)
	movl	$__ZSt4cout, (%esp)
	call	__ZStlsISt11char_traitsIcEERSt13basic_ostreamIcT_ES5_PKc
	movl	%eax, (%esp)
	call	__ZSt4endlIcSt11char_traitsIcEERSt13basic_ostreamIT_T0_ES6_
	movl	$LC133, 4(%esp)
	movl	$__ZSt4cout, (%esp)
	call	__ZStlsISt11char_traitsIcEERSt13basic_ostreamIcT_ES5_PKc
	movl	%eax, (%esp)
	call	__ZSt4endlIcSt11char_traitsIcEERSt13basic_ostreamIT_T0_ES6_
	movl	$LC133, 4(%esp)
	movl	$__ZSt4cout, (%esp)
	call	__ZStlsISt11char_traitsIcEERSt13basic_ostreamIcT_ES5_PKc
	movl	%eax, (%esp)
	call	__ZSt4endlIcSt11char_traitsIcEERSt13basic_ostreamIT_T0_ES6_
	movl	$LC133, 4(%esp)
	movl	$__ZSt4cout, (%esp)
	call	__ZStlsISt11char_traitsIcEERSt13basic_ostreamIcT_ES5_PKc
	movl	%eax, (%esp)
	call	__ZSt4endlIcSt11char_traitsIcEERSt13basic_ostreamIT_T0_ES6_
	movl	$LC133, 4(%esp)
	movl	$__ZSt4cout, (%esp)
	call	__ZStlsISt11char_traitsIcEERSt13basic_ostreamIcT_ES5_PKc
	movl	%eax, (%esp)
	call	__ZSt4endlIcSt11char_traitsIcEERSt13basic_ostreamIT_T0_ES6_
	movl	$LC133, 4(%esp)
	movl	$__ZSt4cout, (%esp)
	call	__ZStlsISt11char_traitsIcEERSt13basic_ostreamIcT_ES5_PKc
	movl	%eax, (%esp)
	call	__ZSt4endlIcSt11char_traitsIcEERSt13basic_ostreamIT_T0_ES6_
	movl	$LC133, 4(%esp)
	movl	$__ZSt4cout, (%esp)
	call	__ZStlsISt11char_traitsIcEERSt13basic_ostreamIcT_ES5_PKc
	movl	%eax, (%esp)
	call	__ZSt4endlIcSt11char_traitsIcEERSt13basic_ostreamIT_T0_ES6_
	movl	$LC133, 4(%esp)
	movl	$__ZSt4cout, (%esp)
	call	__ZStlsISt11char_traitsIcEERSt13basic_ostreamIcT_ES5_PKc
	movl	%eax, (%esp)
	call	__ZSt4endlIcSt11char_traitsIcEERSt13basic_ostreamIT_T0_ES6_
	movl	$LC133, 4(%esp)
	movl	$__ZSt4cout, (%esp)
	call	__ZStlsISt11char_traitsIcEERSt13basic_ostreamIcT_ES5_PKc
	movl	%eax, (%esp)
	call	__ZSt4endlIcSt11char_traitsIcEERSt13basic_ostreamIT_T0_ES6_
	movl	$LC133, 4(%esp)
	movl	$__ZSt4cout, (%esp)
	call	__ZStlsISt11char_traitsIcEERSt13basic_ostreamIcT_ES5_PKc
	movl	%eax, (%esp)
	call	__ZSt4endlIcSt11char_traitsIcEERSt13basic_ostreamIT_T0_ES6_
	movl	$LC133, 4(%esp)
	movl	$__ZSt4cout, (%esp)
	call	__ZStlsISt11char_traitsIcEERSt13basic_ostreamIcT_ES5_PKc
	movl	%eax, (%esp)
	call	__ZSt4endlIcSt11char_traitsIcEERSt13basic_ostreamIT_T0_ES6_
	movl	$LC133, 4(%esp)
	movl	$__ZSt4cout, (%esp)
	call	__ZStlsISt11char_traitsIcEERSt13basic_ostreamIcT_ES5_PKc
	movl	%eax, (%esp)
	call	__ZSt4endlIcSt11char_traitsIcEERSt13basic_ostreamIT_T0_ES6_
	movl	$LC133, 4(%esp)
	movl	$__ZSt4cout, (%esp)
	call	__ZStlsISt11char_traitsIcEERSt13basic_ostreamIcT_ES5_PKc
	movl	%eax, (%esp)
	call	__ZSt4endlIcSt11char_traitsIcEERSt13basic_ostreamIT_T0_ES6_
	movl	$LC133, 4(%esp)
	movl	$__ZSt4cout, (%esp)
	call	__ZStlsISt11char_traitsIcEERSt13basic_ostreamIcT_ES5_PKc
	movl	%eax, (%esp)
	call	__ZSt4endlIcSt11char_traitsIcEERSt13basic_ostreamIT_T0_ES6_
	movl	$LC133, 4(%esp)
	movl	$__ZSt4cout, (%esp)
	call	__ZStlsISt11char_traitsIcEERSt13basic_ostreamIcT_ES5_PKc
	movl	%eax, (%esp)
	call	__ZSt4endlIcSt11char_traitsIcEERSt13basic_ostreamIT_T0_ES6_
	movl	$LC133, 4(%esp)
	movl	$__ZSt4cout, (%esp)
	call	__ZStlsISt11char_traitsIcEERSt13basic_ostreamIcT_ES5_PKc
	movl	%eax, (%esp)
	call	__ZSt4endlIcSt11char_traitsIcEERSt13basic_ostreamIT_T0_ES6_
	movl	$LC133, 4(%esp)
	movl	$__ZSt4cout, (%esp)
	call	__ZStlsISt11char_traitsIcEERSt13basic_ostreamIcT_ES5_PKc
	movl	%eax, (%esp)
	call	__ZSt4endlIcSt11char_traitsIcEERSt13basic_ostreamIT_T0_ES6_
	movl	$LC133, 4(%esp)
	movl	$__ZSt4cout, (%esp)
	call	__ZStlsISt11char_traitsIcEERSt13basic_ostreamIcT_ES5_PKc
	movl	%eax, (%esp)
	call	__ZSt4endlIcSt11char_traitsIcEERSt13basic_ostreamIT_T0_ES6_
	movl	$LC133, 4(%esp)
	movl	$__ZSt4cout, (%esp)
	call	__ZStlsISt11char_traitsIcEERSt13basic_ostreamIcT_ES5_PKc
	movl	%eax, (%esp)
	call	__ZSt4endlIcSt11char_traitsIcEERSt13basic_ostreamIT_T0_ES6_
	movl	$LC134, 4(%esp)
	movl	$__ZSt4cout, (%esp)
	call	__ZStlsISt11char_traitsIcEERSt13basic_ostreamIcT_ES5_PKc
	movl	%eax, (%esp)
	call	__ZSt4endlIcSt11char_traitsIcEERSt13basic_ostreamIT_T0_ES6_
	movl	$LC135, 4(%esp)
	movl	$__ZSt4cout, (%esp)
	call	__ZStlsISt11char_traitsIcEERSt13basic_ostreamIcT_ES5_PKc
	movl	%eax, (%esp)
	call	__ZSt4endlIcSt11char_traitsIcEERSt13basic_ostreamIT_T0_ES6_
	movl	$LC135, 4(%esp)
	movl	$__ZSt4cout, (%esp)
	call	__ZStlsISt11char_traitsIcEERSt13basic_ostreamIcT_ES5_PKc
	movl	%eax, (%esp)
	call	__ZSt4endlIcSt11char_traitsIcEERSt13basic_ostreamIT_T0_ES6_
	movl	$LC136, 4(%esp)
L359:
	movl	$__ZSt4cout, (%esp)
L347:
	call	__ZStlsISt11char_traitsIcEERSt13basic_ostreamIcT_ES5_PKc
	movl	%eax, (%esp)
	call	__ZSt4endlIcSt11char_traitsIcEERSt13basic_ostreamIT_T0_ES6_
	movl	$LC135, 4(%esp)
	movl	$__ZSt4cout, (%esp)
	call	__ZStlsISt11char_traitsIcEERSt13basic_ostreamIcT_ES5_PKc
	movl	%eax, (%esp)
	call	__ZSt4endlIcSt11char_traitsIcEERSt13basic_ostreamIT_T0_ES6_
	movl	$LC135, 4(%esp)
	movl	$__ZSt4cout, (%esp)
	call	__ZStlsISt11char_traitsIcEERSt13basic_ostreamIcT_ES5_PKc
	movl	%eax, (%esp)
	call	__ZSt4endlIcSt11char_traitsIcEERSt13basic_ostreamIT_T0_ES6_
	movl	$LC134, 4(%esp)
	movl	$__ZSt4cout, (%esp)
	call	__ZStlsISt11char_traitsIcEERSt13basic_ostreamIcT_ES5_PKc
	movl	%eax, (%esp)
	call	__ZSt4endlIcSt11char_traitsIcEERSt13basic_ostreamIT_T0_ES6_
	movl	$LC133, 4(%esp)
	movl	$__ZSt4cout, (%esp)
	call	__ZStlsISt11char_traitsIcEERSt13basic_ostreamIcT_ES5_PKc
	movl	%eax, (%esp)
	call	__ZSt4endlIcSt11char_traitsIcEERSt13basic_ostreamIT_T0_ES6_
	movl	$LC132, 4(%esp)
L346:
	movl	$__ZSt4cout, (%esp)
	call	__ZStlsISt11char_traitsIcEERSt13basic_ostreamIcT_ES5_PKc
	movl	%eax, (%esp)
	call	__ZSt4endlIcSt11char_traitsIcEERSt13basic_ostreamIT_T0_ES6_
L303:
	movl	$LC7, (%esp)
	call	_system
	leal	-8(%ebp), %esp
	popl	%ebx
	.cfi_remember_state
	.cfi_restore 3
	popl	%esi
	.cfi_restore 6
	popl	%ebp
	.cfi_restore 5
	.cfi_def_cfa 4, 4
	ret
	.p2align 4,,7
L365:
	.cfi_restore_state
	movl	$LC1, (%esp)
	call	_system
	movl	$__ZSt4cout, (%esp)
	call	__ZSt4endlIcSt11char_traitsIcEERSt13basic_ostreamIT_T0_ES6_
	movl	$LC22, 4(%esp)
	movl	$__ZSt4cout, (%esp)
	call	__ZStlsISt11char_traitsIcEERSt13basic_ostreamIcT_ES5_PKc
	movl	%eax, (%esp)
	call	__ZSt4endlIcSt11char_traitsIcEERSt13basic_ostreamIT_T0_ES6_
	movl	$LC154, 4(%esp)
	movl	$__ZSt4cout, (%esp)
	call	__ZStlsISt11char_traitsIcEERSt13basic_ostreamIcT_ES5_PKc
	movl	%eax, (%esp)
	call	__ZSt4endlIcSt11char_traitsIcEERSt13basic_ostreamIT_T0_ES6_
	movl	$LC155, 4(%esp)
	movl	$__ZSt4cout, (%esp)
	call	__ZStlsISt11char_traitsIcEERSt13basic_ostreamIcT_ES5_PKc
	movl	%eax, (%esp)
	call	__ZSt4endlIcSt11char_traitsIcEERSt13basic_ostreamIT_T0_ES6_
	movl	$LC156, 4(%esp)
	movl	$__ZSt4cout, (%esp)
	call	__ZStlsISt11char_traitsIcEERSt13basic_ostreamIcT_ES5_PKc
	movl	%eax, (%esp)
	call	__ZSt4endlIcSt11char_traitsIcEERSt13basic_ostreamIT_T0_ES6_
	movl	$LC157, 4(%esp)
	movl	$__ZSt4cout, (%esp)
	call	__ZStlsISt11char_traitsIcEERSt13basic_ostreamIcT_ES5_PKc
	movl	%eax, (%esp)
	call	__ZSt4endlIcSt11char_traitsIcEERSt13basic_ostreamIT_T0_ES6_
	movl	$LC158, 4(%esp)
	movl	$__ZSt4cout, (%esp)
	call	__ZStlsISt11char_traitsIcEERSt13basic_ostreamIcT_ES5_PKc
	movl	%eax, (%esp)
	call	__ZSt4endlIcSt11char_traitsIcEERSt13basic_ostreamIT_T0_ES6_
	movl	$LC159, 4(%esp)
	movl	$__ZSt4cout, (%esp)
	call	__ZStlsISt11char_traitsIcEERSt13basic_ostreamIcT_ES5_PKc
	movl	%eax, (%esp)
	call	__ZSt4endlIcSt11char_traitsIcEERSt13basic_ostreamIT_T0_ES6_
	movl	$LC160, 4(%esp)
	movl	$__ZSt4cout, (%esp)
	call	__ZStlsISt11char_traitsIcEERSt13basic_ostreamIcT_ES5_PKc
	movl	%eax, (%esp)
	call	__ZSt4endlIcSt11char_traitsIcEERSt13basic_ostreamIT_T0_ES6_
	movl	$LC161, 4(%esp)
	movl	$__ZSt4cout, (%esp)
	call	__ZStlsISt11char_traitsIcEERSt13basic_ostreamIcT_ES5_PKc
	movl	%eax, (%esp)
	call	__ZSt4endlIcSt11char_traitsIcEERSt13basic_ostreamIT_T0_ES6_
	movl	$LC162, 4(%esp)
	movl	$__ZSt4cout, (%esp)
	call	__ZStlsISt11char_traitsIcEERSt13basic_ostreamIcT_ES5_PKc
	movl	%eax, (%esp)
	call	__ZSt4endlIcSt11char_traitsIcEERSt13basic_ostreamIT_T0_ES6_
	movl	$LC163, 4(%esp)
	movl	$__ZSt4cout, (%esp)
	call	__ZStlsISt11char_traitsIcEERSt13basic_ostreamIcT_ES5_PKc
	movl	%eax, (%esp)
	call	__ZSt4endlIcSt11char_traitsIcEERSt13basic_ostreamIT_T0_ES6_
	movl	$LC164, 4(%esp)
	movl	$__ZSt4cout, (%esp)
	call	__ZStlsISt11char_traitsIcEERSt13basic_ostreamIcT_ES5_PKc
	movl	%eax, (%esp)
	call	__ZSt4endlIcSt11char_traitsIcEERSt13basic_ostreamIT_T0_ES6_
	movl	$LC165, 4(%esp)
	movl	$__ZSt4cout, (%esp)
	call	__ZStlsISt11char_traitsIcEERSt13basic_ostreamIcT_ES5_PKc
	movl	%eax, (%esp)
	call	__ZSt4endlIcSt11char_traitsIcEERSt13basic_ostreamIT_T0_ES6_
	movl	$LC166, 4(%esp)
	movl	$__ZSt4cout, (%esp)
	call	__ZStlsISt11char_traitsIcEERSt13basic_ostreamIcT_ES5_PKc
	movl	%eax, (%esp)
	call	__ZSt4endlIcSt11char_traitsIcEERSt13basic_ostreamIT_T0_ES6_
	movl	$LC167, 4(%esp)
	movl	$__ZSt4cout, (%esp)
	call	__ZStlsISt11char_traitsIcEERSt13basic_ostreamIcT_ES5_PKc
	movl	%eax, (%esp)
	call	__ZSt4endlIcSt11char_traitsIcEERSt13basic_ostreamIT_T0_ES6_
	movl	$LC122, 4(%esp)
	movl	$__ZSt4cout, (%esp)
	call	__ZStlsISt11char_traitsIcEERSt13basic_ostreamIcT_ES5_PKc
	movl	%eax, (%esp)
	call	__ZSt4endlIcSt11char_traitsIcEERSt13basic_ostreamIT_T0_ES6_
	movl	$LC123, 4(%esp)
	movl	$__ZSt4cout, (%esp)
	call	__ZStlsISt11char_traitsIcEERSt13basic_ostreamIcT_ES5_PKc
	movl	%eax, (%esp)
	call	__ZSt4endlIcSt11char_traitsIcEERSt13basic_ostreamIT_T0_ES6_
	movl	$LC123, 4(%esp)
	movl	$__ZSt4cout, (%esp)
	call	__ZStlsISt11char_traitsIcEERSt13basic_ostreamIcT_ES5_PKc
	movl	%eax, (%esp)
	call	__ZSt4endlIcSt11char_traitsIcEERSt13basic_ostreamIT_T0_ES6_
	movl	$LC123, 4(%esp)
	movl	$__ZSt4cout, (%esp)
	call	__ZStlsISt11char_traitsIcEERSt13basic_ostreamIcT_ES5_PKc
	movl	%eax, (%esp)
	call	__ZSt4endlIcSt11char_traitsIcEERSt13basic_ostreamIT_T0_ES6_
	movl	$LC123, 4(%esp)
	movl	$__ZSt4cout, (%esp)
	call	__ZStlsISt11char_traitsIcEERSt13basic_ostreamIcT_ES5_PKc
	movl	%eax, (%esp)
	call	__ZSt4endlIcSt11char_traitsIcEERSt13basic_ostreamIT_T0_ES6_
	movl	$LC122, 4(%esp)
	movl	$__ZSt4cout, (%esp)
	call	__ZStlsISt11char_traitsIcEERSt13basic_ostreamIcT_ES5_PKc
	movl	%eax, (%esp)
	call	__ZSt4endlIcSt11char_traitsIcEERSt13basic_ostreamIT_T0_ES6_
	movl	$LC103, 4(%esp)
	movl	$__ZSt4cout, (%esp)
	call	__ZStlsISt11char_traitsIcEERSt13basic_ostreamIcT_ES5_PKc
	movl	%eax, (%esp)
	call	__ZSt4endlIcSt11char_traitsIcEERSt13basic_ostreamIT_T0_ES6_
	movl	$LC22, 4(%esp)
	movl	$__ZSt4cout, (%esp)
	call	__ZStlsISt11char_traitsIcEERSt13basic_ostreamIcT_ES5_PKc
	movl	%eax, (%esp)
	call	__ZSt4endlIcSt11char_traitsIcEERSt13basic_ostreamIT_T0_ES6_
	movl	$1000, (%esp)
	call	_Sleep@4
	subl	$4, %esp
	movl	$LC1, (%esp)
	call	_system
	movl	$__ZSt4cout, (%esp)
	call	__ZSt4endlIcSt11char_traitsIcEERSt13basic_ostreamIT_T0_ES6_
	movl	$LC22, 4(%esp)
	movl	$__ZSt4cout, (%esp)
	call	__ZStlsISt11char_traitsIcEERSt13basic_ostreamIcT_ES5_PKc
	movl	%eax, (%esp)
	call	__ZSt4endlIcSt11char_traitsIcEERSt13basic_ostreamIT_T0_ES6_
	movl	$LC154, 4(%esp)
	movl	$__ZSt4cout, (%esp)
	call	__ZStlsISt11char_traitsIcEERSt13basic_ostreamIcT_ES5_PKc
	movl	%eax, (%esp)
	call	__ZSt4endlIcSt11char_traitsIcEERSt13basic_ostreamIT_T0_ES6_
	movl	$LC155, 4(%esp)
	movl	$__ZSt4cout, (%esp)
	call	__ZStlsISt11char_traitsIcEERSt13basic_ostreamIcT_ES5_PKc
	movl	%eax, (%esp)
	call	__ZSt4endlIcSt11char_traitsIcEERSt13basic_ostreamIT_T0_ES6_
	movl	$LC156, 4(%esp)
	movl	$__ZSt4cout, (%esp)
	call	__ZStlsISt11char_traitsIcEERSt13basic_ostreamIcT_ES5_PKc
	movl	%eax, (%esp)
	call	__ZSt4endlIcSt11char_traitsIcEERSt13basic_ostreamIT_T0_ES6_
	movl	$LC168, 4(%esp)
	movl	$__ZSt4cout, (%esp)
	call	__ZStlsISt11char_traitsIcEERSt13basic_ostreamIcT_ES5_PKc
	movl	%eax, (%esp)
	call	__ZSt4endlIcSt11char_traitsIcEERSt13basic_ostreamIT_T0_ES6_
	movl	$LC169, 4(%esp)
	movl	$__ZSt4cout, (%esp)
	call	__ZStlsISt11char_traitsIcEERSt13basic_ostreamIcT_ES5_PKc
	movl	%eax, (%esp)
	call	__ZSt4endlIcSt11char_traitsIcEERSt13basic_ostreamIT_T0_ES6_
	movl	$LC170, 4(%esp)
	movl	$__ZSt4cout, (%esp)
	call	__ZStlsISt11char_traitsIcEERSt13basic_ostreamIcT_ES5_PKc
	movl	%eax, (%esp)
	call	__ZSt4endlIcSt11char_traitsIcEERSt13basic_ostreamIT_T0_ES6_
	movl	$LC171, 4(%esp)
	movl	$__ZSt4cout, (%esp)
	call	__ZStlsISt11char_traitsIcEERSt13basic_ostreamIcT_ES5_PKc
	movl	%eax, (%esp)
	call	__ZSt4endlIcSt11char_traitsIcEERSt13basic_ostreamIT_T0_ES6_
	movl	$LC172, 4(%esp)
	movl	$__ZSt4cout, (%esp)
	call	__ZStlsISt11char_traitsIcEERSt13basic_ostreamIcT_ES5_PKc
	movl	%eax, (%esp)
	call	__ZSt4endlIcSt11char_traitsIcEERSt13basic_ostreamIT_T0_ES6_
	movl	$LC162, 4(%esp)
	movl	$__ZSt4cout, (%esp)
	call	__ZStlsISt11char_traitsIcEERSt13basic_ostreamIcT_ES5_PKc
	movl	%eax, (%esp)
	call	__ZSt4endlIcSt11char_traitsIcEERSt13basic_ostreamIT_T0_ES6_
	movl	$LC163, 4(%esp)
	movl	$__ZSt4cout, (%esp)
	call	__ZStlsISt11char_traitsIcEERSt13basic_ostreamIcT_ES5_PKc
	movl	%eax, (%esp)
	call	__ZSt4endlIcSt11char_traitsIcEERSt13basic_ostreamIT_T0_ES6_
	movl	$LC164, 4(%esp)
	movl	$__ZSt4cout, (%esp)
	call	__ZStlsISt11char_traitsIcEERSt13basic_ostreamIcT_ES5_PKc
	movl	%eax, (%esp)
	call	__ZSt4endlIcSt11char_traitsIcEERSt13basic_ostreamIT_T0_ES6_
	movl	$LC165, 4(%esp)
	movl	$__ZSt4cout, (%esp)
	call	__ZStlsISt11char_traitsIcEERSt13basic_ostreamIcT_ES5_PKc
	movl	%eax, (%esp)
	call	__ZSt4endlIcSt11char_traitsIcEERSt13basic_ostreamIT_T0_ES6_
	movl	$LC166, 4(%esp)
	movl	$__ZSt4cout, (%esp)
	call	__ZStlsISt11char_traitsIcEERSt13basic_ostreamIcT_ES5_PKc
	movl	%eax, (%esp)
	call	__ZSt4endlIcSt11char_traitsIcEERSt13basic_ostreamIT_T0_ES6_
	movl	$LC167, 4(%esp)
	movl	$__ZSt4cout, (%esp)
	call	__ZStlsISt11char_traitsIcEERSt13basic_ostreamIcT_ES5_PKc
	movl	%eax, (%esp)
	call	__ZSt4endlIcSt11char_traitsIcEERSt13basic_ostreamIT_T0_ES6_
	movl	$LC122, 4(%esp)
	movl	$__ZSt4cout, (%esp)
	call	__ZStlsISt11char_traitsIcEERSt13basic_ostreamIcT_ES5_PKc
	movl	%eax, (%esp)
	call	__ZSt4endlIcSt11char_traitsIcEERSt13basic_ostreamIT_T0_ES6_
	movl	$LC123, 4(%esp)
	movl	$__ZSt4cout, (%esp)
	call	__ZStlsISt11char_traitsIcEERSt13basic_ostreamIcT_ES5_PKc
	movl	%eax, (%esp)
	call	__ZSt4endlIcSt11char_traitsIcEERSt13basic_ostreamIT_T0_ES6_
	movl	$LC123, 4(%esp)
	movl	$__ZSt4cout, (%esp)
	call	__ZStlsISt11char_traitsIcEERSt13basic_ostreamIcT_ES5_PKc
	movl	%eax, (%esp)
	call	__ZSt4endlIcSt11char_traitsIcEERSt13basic_ostreamIT_T0_ES6_
	movl	$LC123, 4(%esp)
	movl	$__ZSt4cout, (%esp)
	call	__ZStlsISt11char_traitsIcEERSt13basic_ostreamIcT_ES5_PKc
	movl	%eax, (%esp)
	call	__ZSt4endlIcSt11char_traitsIcEERSt13basic_ostreamIT_T0_ES6_
	movl	$LC123, 4(%esp)
	movl	$__ZSt4cout, (%esp)
	call	__ZStlsISt11char_traitsIcEERSt13basic_ostreamIcT_ES5_PKc
	movl	%eax, (%esp)
	call	__ZSt4endlIcSt11char_traitsIcEERSt13basic_ostreamIT_T0_ES6_
	movl	$LC122, 4(%esp)
	movl	$__ZSt4cout, (%esp)
	call	__ZStlsISt11char_traitsIcEERSt13basic_ostreamIcT_ES5_PKc
	movl	%eax, (%esp)
	call	__ZSt4endlIcSt11char_traitsIcEERSt13basic_ostreamIT_T0_ES6_
	movl	$LC103, 4(%esp)
	movl	$__ZSt4cout, (%esp)
	call	__ZStlsISt11char_traitsIcEERSt13basic_ostreamIcT_ES5_PKc
	movl	%eax, (%esp)
	call	__ZSt4endlIcSt11char_traitsIcEERSt13basic_ostreamIT_T0_ES6_
	movl	$LC22, 4(%esp)
	movl	$__ZSt4cout, (%esp)
	call	__ZStlsISt11char_traitsIcEERSt13basic_ostreamIcT_ES5_PKc
	movl	%eax, (%esp)
	call	__ZSt4endlIcSt11char_traitsIcEERSt13basic_ostreamIT_T0_ES6_
	movl	$500, (%esp)
	call	_Sleep@4
	subl	$4, %esp
	movl	$LC1, (%esp)
	call	_system
	movl	$__ZSt4cout, (%esp)
	call	__ZSt4endlIcSt11char_traitsIcEERSt13basic_ostreamIT_T0_ES6_
	movl	$LC22, 4(%esp)
	movl	$__ZSt4cout, (%esp)
	call	__ZStlsISt11char_traitsIcEERSt13basic_ostreamIcT_ES5_PKc
	movl	%eax, (%esp)
	call	__ZSt4endlIcSt11char_traitsIcEERSt13basic_ostreamIT_T0_ES6_
	movl	$LC154, 4(%esp)
	movl	$__ZSt4cout, (%esp)
	call	__ZStlsISt11char_traitsIcEERSt13basic_ostreamIcT_ES5_PKc
	movl	%eax, (%esp)
	call	__ZSt4endlIcSt11char_traitsIcEERSt13basic_ostreamIT_T0_ES6_
	movl	$LC155, 4(%esp)
	movl	$__ZSt4cout, (%esp)
	call	__ZStlsISt11char_traitsIcEERSt13basic_ostreamIcT_ES5_PKc
	movl	%eax, (%esp)
	call	__ZSt4endlIcSt11char_traitsIcEERSt13basic_ostreamIT_T0_ES6_
	movl	$LC156, 4(%esp)
	movl	$__ZSt4cout, (%esp)
	call	__ZStlsISt11char_traitsIcEERSt13basic_ostreamIcT_ES5_PKc
	movl	%eax, (%esp)
	call	__ZSt4endlIcSt11char_traitsIcEERSt13basic_ostreamIT_T0_ES6_
	movl	$LC173, 4(%esp)
	movl	$__ZSt4cout, (%esp)
	call	__ZStlsISt11char_traitsIcEERSt13basic_ostreamIcT_ES5_PKc
	movl	%eax, (%esp)
	call	__ZSt4endlIcSt11char_traitsIcEERSt13basic_ostreamIT_T0_ES6_
	movl	$LC174, 4(%esp)
	movl	$__ZSt4cout, (%esp)
	call	__ZStlsISt11char_traitsIcEERSt13basic_ostreamIcT_ES5_PKc
	movl	%eax, (%esp)
	call	__ZSt4endlIcSt11char_traitsIcEERSt13basic_ostreamIT_T0_ES6_
	movl	$LC175, 4(%esp)
	movl	$__ZSt4cout, (%esp)
	call	__ZStlsISt11char_traitsIcEERSt13basic_ostreamIcT_ES5_PKc
	movl	%eax, (%esp)
	call	__ZSt4endlIcSt11char_traitsIcEERSt13basic_ostreamIT_T0_ES6_
	movl	$LC176, 4(%esp)
	movl	$__ZSt4cout, (%esp)
	call	__ZStlsISt11char_traitsIcEERSt13basic_ostreamIcT_ES5_PKc
	movl	%eax, (%esp)
	call	__ZSt4endlIcSt11char_traitsIcEERSt13basic_ostreamIT_T0_ES6_
	movl	$LC177, 4(%esp)
	movl	$__ZSt4cout, (%esp)
	call	__ZStlsISt11char_traitsIcEERSt13basic_ostreamIcT_ES5_PKc
	movl	%eax, (%esp)
	call	__ZSt4endlIcSt11char_traitsIcEERSt13basic_ostreamIT_T0_ES6_
	movl	$LC178, 4(%esp)
	movl	$__ZSt4cout, (%esp)
	call	__ZStlsISt11char_traitsIcEERSt13basic_ostreamIcT_ES5_PKc
	movl	%eax, (%esp)
	call	__ZSt4endlIcSt11char_traitsIcEERSt13basic_ostreamIT_T0_ES6_
	movl	$LC179, 4(%esp)
	movl	$__ZSt4cout, (%esp)
	call	__ZStlsISt11char_traitsIcEERSt13basic_ostreamIcT_ES5_PKc
	movl	%eax, (%esp)
	call	__ZSt4endlIcSt11char_traitsIcEERSt13basic_ostreamIT_T0_ES6_
	movl	$LC180, 4(%esp)
	movl	$__ZSt4cout, (%esp)
	call	__ZStlsISt11char_traitsIcEERSt13basic_ostreamIcT_ES5_PKc
	movl	%eax, (%esp)
	call	__ZSt4endlIcSt11char_traitsIcEERSt13basic_ostreamIT_T0_ES6_
	movl	$LC165, 4(%esp)
	movl	$__ZSt4cout, (%esp)
	call	__ZStlsISt11char_traitsIcEERSt13basic_ostreamIcT_ES5_PKc
	movl	%eax, (%esp)
	call	__ZSt4endlIcSt11char_traitsIcEERSt13basic_ostreamIT_T0_ES6_
	movl	$LC166, 4(%esp)
	movl	$__ZSt4cout, (%esp)
	call	__ZStlsISt11char_traitsIcEERSt13basic_ostreamIcT_ES5_PKc
	movl	%eax, (%esp)
	call	__ZSt4endlIcSt11char_traitsIcEERSt13basic_ostreamIT_T0_ES6_
	movl	$LC167, 4(%esp)
	movl	$__ZSt4cout, (%esp)
	call	__ZStlsISt11char_traitsIcEERSt13basic_ostreamIcT_ES5_PKc
	movl	%eax, (%esp)
	call	__ZSt4endlIcSt11char_traitsIcEERSt13basic_ostreamIT_T0_ES6_
	movl	$LC122, 4(%esp)
	movl	$__ZSt4cout, (%esp)
	call	__ZStlsISt11char_traitsIcEERSt13basic_ostreamIcT_ES5_PKc
	movl	%eax, (%esp)
	call	__ZSt4endlIcSt11char_traitsIcEERSt13basic_ostreamIT_T0_ES6_
	movl	$LC123, 4(%esp)
	movl	$__ZSt4cout, (%esp)
	call	__ZStlsISt11char_traitsIcEERSt13basic_ostreamIcT_ES5_PKc
	movl	%eax, (%esp)
	call	__ZSt4endlIcSt11char_traitsIcEERSt13basic_ostreamIT_T0_ES6_
	movl	$LC123, 4(%esp)
	movl	$__ZSt4cout, (%esp)
	call	__ZStlsISt11char_traitsIcEERSt13basic_ostreamIcT_ES5_PKc
	movl	%eax, (%esp)
	call	__ZSt4endlIcSt11char_traitsIcEERSt13basic_ostreamIT_T0_ES6_
	movl	$LC123, 4(%esp)
	movl	$__ZSt4cout, (%esp)
	call	__ZStlsISt11char_traitsIcEERSt13basic_ostreamIcT_ES5_PKc
	movl	%eax, (%esp)
	call	__ZSt4endlIcSt11char_traitsIcEERSt13basic_ostreamIT_T0_ES6_
	movl	$LC123, 4(%esp)
	movl	$__ZSt4cout, (%esp)
	call	__ZStlsISt11char_traitsIcEERSt13basic_ostreamIcT_ES5_PKc
	movl	%eax, (%esp)
	call	__ZSt4endlIcSt11char_traitsIcEERSt13basic_ostreamIT_T0_ES6_
	movl	$LC122, 4(%esp)
	movl	$__ZSt4cout, (%esp)
	call	__ZStlsISt11char_traitsIcEERSt13basic_ostreamIcT_ES5_PKc
	movl	%eax, (%esp)
	call	__ZSt4endlIcSt11char_traitsIcEERSt13basic_ostreamIT_T0_ES6_
	movl	$LC103, 4(%esp)
	movl	$__ZSt4cout, (%esp)
	call	__ZStlsISt11char_traitsIcEERSt13basic_ostreamIcT_ES5_PKc
	movl	%eax, (%esp)
	call	__ZSt4endlIcSt11char_traitsIcEERSt13basic_ostreamIT_T0_ES6_
	movl	$LC22, 4(%esp)
	movl	$__ZSt4cout, (%esp)
	call	__ZStlsISt11char_traitsIcEERSt13basic_ostreamIcT_ES5_PKc
	movl	%eax, (%esp)
	call	__ZSt4endlIcSt11char_traitsIcEERSt13basic_ostreamIT_T0_ES6_
	movl	$500, (%esp)
	call	_Sleep@4
	subl	$4, %esp
	movl	$LC1, (%esp)
	call	_system
	movl	$__ZSt4cout, (%esp)
	call	__ZSt4endlIcSt11char_traitsIcEERSt13basic_ostreamIT_T0_ES6_
	movl	$LC22, 4(%esp)
	movl	$__ZSt4cout, (%esp)
	call	__ZStlsISt11char_traitsIcEERSt13basic_ostreamIcT_ES5_PKc
	movl	%eax, (%esp)
	call	__ZSt4endlIcSt11char_traitsIcEERSt13basic_ostreamIT_T0_ES6_
	movl	$LC154, 4(%esp)
	movl	$__ZSt4cout, (%esp)
	call	__ZStlsISt11char_traitsIcEERSt13basic_ostreamIcT_ES5_PKc
	movl	%eax, (%esp)
	call	__ZSt4endlIcSt11char_traitsIcEERSt13basic_ostreamIT_T0_ES6_
	movl	$LC155, 4(%esp)
	movl	$__ZSt4cout, (%esp)
	call	__ZStlsISt11char_traitsIcEERSt13basic_ostreamIcT_ES5_PKc
	movl	%eax, (%esp)
