	.file	"\277\255\310\366\264\253\313\265Alpha.cpp"
.lcomm __ZStL8__ioinit,1,1
	.text
	.globl	__Z9Color_Setii
	.def	__Z9Color_Setii;	.scl	2;	.type	32;	.endef
__Z9Color_Setii:
LFB1287:
	.cfi_startproc
	pushl	%ebp
	.cfi_def_cfa_offset 8
	.cfi_offset 5, -8
	movl	%esp, %ebp
	.cfi_def_cfa_register 5
	pushl	%ebx
	subl	$36, %esp
	.cfi_offset 3, -12
	movl	8(%ebp), %eax
	sall	$4, %eax
	movl	%eax, %edx
	movl	12(%ebp), %eax
	addl	%edx, %eax
	subl	$17, %eax
	movl	%eax, -12(%ebp)
	cmpl	$0, -12(%ebp)
	jne	L2
	movl	$256, -12(%ebp)
L2:
	movl	-12(%ebp), %eax
	movzwl	%ax, %ebx
	movl	$-11, (%esp)
	call	_GetStdHandle@4
	subl	$4, %esp
	movl	%ebx, 4(%esp)
	movl	%eax, (%esp)
	call	_SetConsoleTextAttribute@8
	subl	$8, %esp
	movl	-4(%ebp), %ebx
	leave
	.cfi_restore 5
	.cfi_restore 3
	.cfi_def_cfa 4, 4
	ret
	.cfi_endproc
LFE1287:
	.globl	__Z11Color_Clearv
	.def	__Z11Color_Clearv;	.scl	2;	.type	32;	.endef
__Z11Color_Clearv:
LFB1288:
	.cfi_startproc
	pushl	%ebp
	.cfi_def_cfa_offset 8
	.cfi_offset 5, -8
	movl	%esp, %ebp
	.cfi_def_cfa_register 5
	subl	$24, %esp
	movl	$-11, (%esp)
	call	_GetStdHandle@4
	subl	$4, %esp
	movl	$7, 4(%esp)
	movl	%eax, (%esp)
	call	_SetConsoleTextAttribute@8
	subl	$8, %esp
	leave
	.cfi_restore 5
	.cfi_def_cfa 4, 4
	ret
	.cfi_endproc
LFE1288:
	.globl	__Z7Pos_Setii
	.def	__Z7Pos_Setii;	.scl	2;	.type	32;	.endef
__Z7Pos_Setii:
LFB1289:
	.cfi_startproc
	pushl	%ebp
	.cfi_def_cfa_offset 8
	.cfi_offset 5, -8
	movl	%esp, %ebp
	.cfi_def_cfa_register 5
	pushl	%ebx
	subl	$20, %esp
	.cfi_offset 3, -12
	movl	8(%ebp), %eax
	movw	%ax, %bx
	movl	12(%ebp), %eax
	movzwl	%ax, %eax
	sall	$16, %eax
	movl	%eax, %edx
	movzwl	%bx, %eax
	orl	%edx, %eax
	movl	%eax, %ebx
	movl	$-11, (%esp)
	call	_GetStdHandle@4
	subl	$4, %esp
	movl	%ebx, 4(%esp)
	movl	%eax, (%esp)
	call	_SetConsoleCursorPosition@8
	subl	$8, %esp
	movl	-4(%ebp), %ebx
	leave
	.cfi_restore 5
	.cfi_restore 3
	.cfi_def_cfa 4, 4
	ret
	.cfi_endproc
LFE1289:
	.globl	_Hero
	.bss
	.align 32
_Hero:
	.space 192
	.globl	_had_demo
_had_demo:
	.space 1
	.globl	_bought_z1
	.data
_bought_z1:
	.byte	1
	.globl	_bought_z2
	.bss
_bought_z2:
	.space 1
	.globl	_had_R18
_had_R18:
	.space 1
	.globl	_Pass_Game
	.data
_Pass_Game:
	.byte	1
	.globl	_Story_End
	.align 4
_Story_End:
	.long	1
	.def	___main;	.scl	2;	.type	32;	.endef
	.section .rdata,"dr"
LC0:
	.ascii "color f5\0"
	.align 4
LC1:
	.ascii "title \277\255\310\366\264\253\313\265                                                                         by.YXH\317\314\323\343\0"
LC2:
	.ascii "mode con cols=80 lines=25\0"
LC3:
	.ascii "pause\0"
	.text
	.globl	_main
	.def	_main;	.scl	2;	.type	32;	.endef
_main:
LFB1290:
	.cfi_startproc
	pushl	%ebp
	.cfi_def_cfa_offset 8
	.cfi_offset 5, -8
	movl	%esp, %ebp
	.cfi_def_cfa_register 5
	andl	$-16, %esp
	subl	$16, %esp
	call	___main
	movl	$LC0, (%esp)
	call	_system
	movl	$LC1, (%esp)
	call	_system
	movl	$LC2, (%esp)
	call	_system
	call	__Z8Hide_Curv
	call	__Z4Menuv
	movl	$LC3, (%esp)
	call	_system
	movl	$0, %eax
	leave
	.cfi_restore 5
	.cfi_def_cfa 4, 4
	ret
	.cfi_endproc
LFE1290:
	.section .rdata,"dr"
LC4:
	.ascii "mode con cols=157 lines=36\0"
	.text
	.globl	__Z4Playv
	.def	__Z4Playv;	.scl	2;	.type	32;	.endef
__Z4Playv:
LFB1291:
	.cfi_startproc
	pushl	%ebp
	.cfi_def_cfa_offset 8
	.cfi_offset 5, -8
	movl	%esp, %ebp
	.cfi_def_cfa_register 5
	subl	$24, %esp
	movl	$1, (%esp)
	call	__Z15Fight_ChuShiHuai
	call	__Z4CG_0v
	movl	_Hero+4, %eax
	testl	%eax, %eax
	jg	L8
	jmp	L7
L8:
	movzbl	_had_demo, %eax
	testb	%al, %al
	je	L10
	call	__Z4Demov
	jmp	L7
L10:
	movl	$LC4, (%esp)
	call	_system
	movl	$2, (%esp)
	call	__Z15Fight_ChuShiHuai
	movzbl	_bought_z1, %eax
	xorl	$1, %eax
	testb	%al, %al
	je	L11
	movl	$LC2, (%esp)
	call	_system
	call	__Z8Bought_zv
	jmp	L7
L11:
	call	__Z4CG_1v
	movl	_Hero+4, %eax
	testl	%eax, %eax
	jg	L12
	jmp	L7
L12:
	movzbl	_Pass_Game, %eax
	testb	%al, %al
	je	L13
	call	__Z15Pass_Game_Happyv
	jmp	L7
L13:
	movzbl	_bought_z2, %eax
	xorl	$1, %eax
	testb	%al, %al
	je	L14
	movl	$LC2, (%esp)
	call	_system
	call	__Z8Bought_zv
	jmp	L7
L14:
	call	__Z4CG_2v
	movl	$LC2, (%esp)
	call	_system
L7:
	leave
	.cfi_restore 5
	.cfi_def_cfa 4, 4
	ret
	.cfi_endproc
LFE1291:
	.globl	__Z3endi
	.def	__Z3endi;	.scl	2;	.type	32;	.endef
__Z3endi:
LFB1292:
	.cfi_startproc
	pushl	%ebp
	.cfi_def_cfa_offset 8
	.cfi_offset 5, -8
	movl	%esp, %ebp
	.cfi_def_cfa_register 5
	subl	$40, %esp
	movl	$1, -12(%ebp)
	jmp	L16
L17:
	movl	$__ZSt4endlIcSt11char_traitsIcEERSt13basic_ostreamIT_T0_ES6_, (%esp)
	movl	$__ZSt4cout, %ecx
	call	__ZNSolsEPFRSoS_E
	subl	$4, %esp
	addl	$1, -12(%ebp)
L16:
	movl	-12(%ebp), %eax
	cmpl	8(%ebp), %eax
	jle	L17
	leave
	.cfi_restore 5
	.cfi_def_cfa 4, 4
	ret
	.cfi_endproc
LFE1292:
	.section .rdata,"dr"
LC5:
	.ascii " \0"
	.text
	.globl	__Z5spacei
	.def	__Z5spacei;	.scl	2;	.type	32;	.endef
__Z5spacei:
LFB1293:
	.cfi_startproc
	pushl	%ebp
	.cfi_def_cfa_offset 8
	.cfi_offset 5, -8
	movl	%esp, %ebp
	.cfi_def_cfa_register 5
	subl	$40, %esp
	movl	$1, -12(%ebp)
	jmp	L19
L20:
	movl	$LC5, 4(%esp)
	movl	$__ZSt4cout, (%esp)
	call	__ZStlsISt11char_traitsIcEERSt13basic_ostreamIcT_ES5_PKc
	addl	$1, -12(%ebp)
L19:
	movl	-12(%ebp), %eax
	cmpl	8(%ebp), %eax
	jle	L20
	leave
	.cfi_restore 5
	.cfi_def_cfa 4, 4
	ret
	.cfi_endproc
LFE1293:
	.section .rdata,"dr"
LC6:
	.ascii "cls\0"
	.align 4
LC7:
	.ascii " \263\314\320\362\263\366\317\326bug!!!\12(\304\343\313\306\272\365\314\375\274\373\301\313\327\367\325\337\265\304\260\247\272\277)\12\0"
LC8:
	.ascii " \307\353\301\242\274\264\317\362\327\367\325\337\273\343\261\250\12\0"
LC9:
	.ascii " \264\355\316\363\264\372\302\353:\" \0"
LC10:
	.ascii " \"\12\0"
	.align 4
LC11:
	.ascii " \264\355\316\363\264\372\302\353\277\311\322\324\317\362\327\367\325\337\321\257\316\312\243\254\326\247\263\326\323\316\317\267\241\243\0"
	.text
	.globl	__Z5checkSsSs
	.def	__Z5checkSsSs;	.scl	2;	.type	32;	.endef
__Z5checkSsSs:
LFB1294:
	.cfi_startproc
	pushl	%ebp
	.cfi_def_cfa_offset 8
	.cfi_offset 5, -8
	movl	%esp, %ebp
	.cfi_def_cfa_register 5
	subl	$24, %esp
	movl	$LC6, (%esp)
	call	_system
	movl	$LC7, 4(%esp)
	movl	$__ZSt4cout, (%esp)
	call	__ZStlsISt11char_traitsIcEERSt13basic_ostreamIcT_ES5_PKc
	movl	$LC8, 4(%esp)
	movl	$__ZSt4cout, (%esp)
	call	__ZStlsISt11char_traitsIcEERSt13basic_ostreamIcT_ES5_PKc
	movl	$LC9, 4(%esp)
	movl	$__ZSt4cout, (%esp)
	call	__ZStlsISt11char_traitsIcEERSt13basic_ostreamIcT_ES5_PKc
	movl	8(%ebp), %edx
	movl	%edx, 4(%esp)
	movl	%eax, (%esp)
	call	__ZStlsIcSt11char_traitsIcESaIcEERSt13basic_ostreamIT_T0_ES7_RKSbIS4_S5_T1_E
	movl	$LC5, 4(%esp)
	movl	%eax, (%esp)
	call	__ZStlsISt11char_traitsIcEERSt13basic_ostreamIcT_ES5_PKc
	movl	12(%ebp), %edx
	movl	%edx, 4(%esp)
	movl	%eax, (%esp)
	call	__ZStlsIcSt11char_traitsIcESaIcEERSt13basic_ostreamIT_T0_ES7_RKSbIS4_S5_T1_E
	movl	$LC10, 4(%esp)
	movl	%eax, (%esp)
	call	__ZStlsISt11char_traitsIcEERSt13basic_ostreamIcT_ES5_PKc
	movl	$LC11, 4(%esp)
	movl	$__ZSt4cout, (%esp)
	call	__ZStlsISt11char_traitsIcEERSt13basic_ostreamIcT_ES5_PKc
	movl	$LC3, (%esp)
	call	_system
	leave
	.cfi_restore 5
	.cfi_def_cfa 4, 4
	ret
	.cfi_endproc
LFE1294:
	.section .rdata,"dr"
LC12:
	.ascii "#\0"
	.text
	.globl	__Z7Loadingv
	.def	__Z7Loadingv;	.scl	2;	.type	32;	.endef
__Z7Loadingv:
LFB1295:
	.cfi_startproc
	pushl	%ebp
	.cfi_def_cfa_offset 8
	.cfi_offset 5, -8
	movl	%esp, %ebp
	.cfi_def_cfa_register 5
	subl	$40, %esp
	movl	$LC6, (%esp)
	call	_system
	movl	$13, (%esp)
	call	__Z3endi
	movl	$15, (%esp)
	call	__Z5spacei
	movl	$1, -12(%ebp)
	jmp	L23
L24:
	movl	$LC12, 4(%esp)
	movl	$__ZSt4cout, (%esp)
	call	__ZStlsISt11char_traitsIcEERSt13basic_ostreamIcT_ES5_PKc
	movl	$5, (%esp)
	call	_Sleep@4
	subl	$4, %esp
	addl	$1, -12(%ebp)
L23:
	cmpl	$50, -12(%ebp)
	jle	L24
	leave
	.cfi_restore 5
	.cfi_def_cfa 4, 4
	ret
	.cfi_endproc
LFE1295:
	.globl	__Z6Randomii
	.def	__Z6Randomii;	.scl	2;	.type	32;	.endef
__Z6Randomii:
LFB1296:
	.cfi_startproc
	pushl	%ebp
	.cfi_def_cfa_offset 8
	.cfi_offset 5, -8
	movl	%esp, %ebp
	.cfi_def_cfa_register 5
	subl	$40, %esp
	movl	$0, -16(%ebp)
	movl	-16(%ebp), %eax
	movl	%eax, (%esp)
	call	__time64
	movl	%eax, (%esp)
	call	_srand
	call	_rand
	movl	8(%ebp), %edx
	movl	12(%ebp), %ecx
	subl	%edx, %ecx
	cltd
	idivl	%ecx
	movl	8(%ebp), %eax
	addl	%edx, %eax
	movl	%eax, -12(%ebp)
	movl	-12(%ebp), %eax
	leave
	.cfi_restore 5
	.cfi_def_cfa 4, 4
	ret
	.cfi_endproc
LFE1296:
	.globl	__Z15Change_a_littlei
	.def	__Z15Change_a_littlei;	.scl	2;	.type	32;	.endef
__Z15Change_a_littlei:
LFB1297:
	.cfi_startproc
	pushl	%ebp
	.cfi_def_cfa_offset 8
	.cfi_offset 5, -8
	movl	%esp, %ebp
	.cfi_def_cfa_register 5
	movl	8(%ebp), %eax
	movl	%eax, %edx
	shrl	$31, %edx
	addl	%edx, %eax
	sarl	%eax
	subl	$5, %eax
	popl	%ebp
	.cfi_restore 5
	.cfi_def_cfa 4, 4
	ret
	.cfi_endproc
LFE1297:
	.section .rdata,"dr"
	.align 4
LC13:
	.ascii "------------------------------------------------------------------------------------------------------------------------------------------------------------\0"
	.align 4
LC14:
	.ascii "-                                                                                                                                                          -\0"
	.align 4
LC15:
	.ascii "-    *************************************************************************************************************************************************     -\0"
	.align 4
LC16:
	.ascii "-    *                                                                                                                                               *     -\0"
LC17:
	.ascii "-    *\0"
LC18:
	.ascii "1.\320\375\267\347\325\266\0"
LC19:
	.ascii "2.\274\257\306\370\0"
LC20:
	.ascii "3.\310\241\317\373\0"
LC21:
	.ascii "*    -\0"
	.section	.text$_Z5SkillP7monsterPbi,"x"
	.linkonce discard
	.globl	__Z5SkillP7monsterPbi
	.def	__Z5SkillP7monsterPbi;	.scl	2;	.type	32;	.endef
__Z5SkillP7monsterPbi:
LFB1298:
	.cfi_startproc
	pushl	%ebp
	.cfi_def_cfa_offset 8
	.cfi_offset 5, -8
	movl	%esp, %ebp
	.cfi_def_cfa_register 5
	subl	$56, %esp
	jmp	L31
L46:
	movl	$LC6, (%esp)
	call	_system
	movl	$1, (%esp)
	call	__Z3endi
	movl	$LC13, 4(%esp)
	movl	$__ZSt4cout, (%esp)
	call	__ZStlsISt11char_traitsIcEERSt13basic_ostreamIcT_ES5_PKc
	movl	$__ZSt4endlIcSt11char_traitsIcEERSt13basic_ostreamIT_T0_ES6_, (%esp)
	movl	%eax, %ecx
	call	__ZNSolsEPFRSoS_E
	subl	$4, %esp
	movl	$LC14, 4(%esp)
	movl	$__ZSt4cout, (%esp)
	call	__ZStlsISt11char_traitsIcEERSt13basic_ostreamIcT_ES5_PKc
	movl	$__ZSt4endlIcSt11char_traitsIcEERSt13basic_ostreamIT_T0_ES6_, (%esp)
	movl	%eax, %ecx
	call	__ZNSolsEPFRSoS_E
	subl	$4, %esp
	movl	$LC14, 4(%esp)
	movl	$__ZSt4cout, (%esp)
	call	__ZStlsISt11char_traitsIcEERSt13basic_ostreamIcT_ES5_PKc
	movl	$__ZSt4endlIcSt11char_traitsIcEERSt13basic_ostreamIT_T0_ES6_, (%esp)
	movl	%eax, %ecx
	call	__ZNSolsEPFRSoS_E
	subl	$4, %esp
	movl	$LC15, 4(%esp)
	movl	$__ZSt4cout, (%esp)
	call	__ZStlsISt11char_traitsIcEERSt13basic_ostreamIcT_ES5_PKc
	movl	$__ZSt4endlIcSt11char_traitsIcEERSt13basic_ostreamIT_T0_ES6_, (%esp)
	movl	%eax, %ecx
	call	__ZNSolsEPFRSoS_E
	subl	$4, %esp
	movl	$LC16, 4(%esp)
	movl	$__ZSt4cout, (%esp)
	call	__ZStlsISt11char_traitsIcEERSt13basic_ostreamIcT_ES5_PKc
	movl	$__ZSt4endlIcSt11char_traitsIcEERSt13basic_ostreamIT_T0_ES6_, (%esp)
	movl	%eax, %ecx
	call	__ZNSolsEPFRSoS_E
	subl	$4, %esp
	movl	$LC16, 4(%esp)
	movl	$__ZSt4cout, (%esp)
	call	__ZStlsISt11char_traitsIcEERSt13basic_ostreamIcT_ES5_PKc
	movl	$__ZSt4endlIcSt11char_traitsIcEERSt13basic_ostreamIT_T0_ES6_, (%esp)
	movl	%eax, %ecx
	call	__ZNSolsEPFRSoS_E
	subl	$4, %esp
	movl	$LC16, 4(%esp)
	movl	$__ZSt4cout, (%esp)
	call	__ZStlsISt11char_traitsIcEERSt13basic_ostreamIcT_ES5_PKc
	movl	$__ZSt4endlIcSt11char_traitsIcEERSt13basic_ostreamIT_T0_ES6_, (%esp)
	movl	%eax, %ecx
	call	__ZNSolsEPFRSoS_E
	subl	$4, %esp
	movl	$1, -16(%ebp)
	jmp	L32
L38:
	movl	$LC17, 4(%esp)
	movl	$__ZSt4cout, (%esp)
	call	__ZStlsISt11char_traitsIcEERSt13basic_ostreamIcT_ES5_PKc
	movl	$65, (%esp)
	call	__Z5spacei
	movl	-16(%ebp), %eax
	cmpl	$2, %eax
	je	L34
	cmpl	$3, %eax
	je	L35
	cmpl	$1, %eax
	jne	L47
	movl	$LC18, 4(%esp)
	movl	$__ZSt4cout, (%esp)
	call	__ZStlsISt11char_traitsIcEERSt13basic_ostreamIcT_ES5_PKc
	movl	$7, (%esp)
	call	__Z5spacei
	jmp	L37
L34:
	movl	$LC19, 4(%esp)
	movl	$__ZSt4cout, (%esp)
	call	__ZStlsISt11char_traitsIcEERSt13basic_ostreamIcT_ES5_PKc
	movl	$9, (%esp)
	call	__Z5spacei
	jmp	L37
L35:
	movl	$LC20, 4(%esp)
	movl	$__ZSt4cout, (%esp)
	call	__ZStlsISt11char_traitsIcEERSt13basic_ostreamIcT_ES5_PKc
	movl	$9, (%esp)
	call	__Z5spacei
	jmp	L37
L47:
	movl	$15, (%esp)
	call	__Z5spacei
	nop
L37:
	movl	$63, (%esp)
	call	__Z5spacei
	movl	$LC21, 4(%esp)
	movl	$__ZSt4cout, (%esp)
	call	__ZStlsISt11char_traitsIcEERSt13basic_ostreamIcT_ES5_PKc
	movl	$__ZSt4endlIcSt11char_traitsIcEERSt13basic_ostreamIT_T0_ES6_, (%esp)
	movl	%eax, %ecx
	call	__ZNSolsEPFRSoS_E
	subl	$4, %esp
	addl	$1, -16(%ebp)
L32:
	cmpl	$25, -16(%ebp)
	jle	L38
	movl	$LC16, 4(%esp)
	movl	$__ZSt4cout, (%esp)
	call	__ZStlsISt11char_traitsIcEERSt13basic_ostreamIcT_ES5_PKc
	movl	$__ZSt4endlIcSt11char_traitsIcEERSt13basic_ostreamIT_T0_ES6_, (%esp)
	movl	%eax, %ecx
	call	__ZNSolsEPFRSoS_E
	subl	$4, %esp
	movl	$LC16, 4(%esp)
	movl	$__ZSt4cout, (%esp)
	call	__ZStlsISt11char_traitsIcEERSt13basic_ostreamIcT_ES5_PKc
	movl	$__ZSt4endlIcSt11char_traitsIcEERSt13basic_ostreamIT_T0_ES6_, (%esp)
	movl	%eax, %ecx
	call	__ZNSolsEPFRSoS_E
	subl	$4, %esp
	movl	$LC15, 4(%esp)
	movl	$__ZSt4cout, (%esp)
	call	__ZStlsISt11char_traitsIcEERSt13basic_ostreamIcT_ES5_PKc
	movl	$__ZSt4endlIcSt11char_traitsIcEERSt13basic_ostreamIT_T0_ES6_, (%esp)
	movl	%eax, %ecx
	call	__ZNSolsEPFRSoS_E
	subl	$4, %esp
	movl	$LC14, 4(%esp)
	movl	$__ZSt4cout, (%esp)
	call	__ZStlsISt11char_traitsIcEERSt13basic_ostreamIcT_ES5_PKc
	movl	$__ZSt4endlIcSt11char_traitsIcEERSt13basic_ostreamIT_T0_ES6_, (%esp)
	movl	%eax, %ecx
	call	__ZNSolsEPFRSoS_E
	subl	$4, %esp
	movl	$LC13, 4(%esp)
	movl	$__ZSt4cout, (%esp)
	call	__ZStlsISt11char_traitsIcEERSt13basic_ostreamIcT_ES5_PKc
	movl	$__ZSt4endlIcSt11char_traitsIcEERSt13basic_ostreamIT_T0_ES6_, (%esp)
	movl	%eax, %ecx
	call	__ZNSolsEPFRSoS_E
	subl	$4, %esp
	call	__getch
	movb	%al, -9(%ebp)
	movsbl	-9(%ebp), %eax
	cmpl	$50, %eax
	je	L39
	cmpl	$51, %eax
	je	L40
	cmpl	$49, %eax
	jne	L31
	movl	_Hero+12, %eax
	testl	%eax, %eax
	jg	L42
	movl	$0, 4(%esp)
	movl	$21, (%esp)
	call	__Z2CGii
	movl	12(%ebp), %eax
	movb	$1, (%eax)
	jmp	L48
L42:
	movl	_Hero+12, %eax
	subl	$1, %eax
	movl	%eax, _Hero+12
	movl	_Hero+24, %eax
	movl	%eax, -28(%ebp)
	fildl	-28(%ebp)
	fldl	LC22
	fmulp	%st, %st(1)
	fldl	LC23
	fdivrp	%st, %st(1)
	fstpl	-40(%ebp)
	movl	$15, 4(%esp)
	movl	$10, (%esp)
	call	__Z6Randomii
	movl	%eax, -28(%ebp)
	fildl	-28(%ebp)
	faddl	-40(%ebp)
	fnstcw	-30(%ebp)
	movzwl	-30(%ebp), %eax
	movb	$12, %ah
	movw	%ax, -32(%ebp)
	fldcw	-32(%ebp)
	fistpl	-20(%ebp)
	fldcw	-30(%ebp)
	cmpl	$2, 16(%ebp)
	jne	L44
	movl	-20(%ebp), %eax
	movl	%eax, 4(%esp)
	movl	$22, (%esp)
	call	__Z2CGii
L44:
	cmpl	$3, 16(%ebp)
	jne	L45
	movl	-20(%ebp), %eax
	movl	%eax, 4(%esp)
	movl	$28, (%esp)
	call	__Z2CGii
L45:
	movl	8(%ebp), %eax
	movl	4(%eax), %eax
	subl	-20(%ebp), %eax
	movl	%eax, %edx
	movl	8(%ebp), %eax
	movl	%edx, 4(%eax)
	jmp	L48
L39:
	movl	_Hero+12, %eax
	addl	$1, %eax
	movl	%eax, _Hero+12
	movl	$0, 4(%esp)
	movl	$1, (%esp)
	call	__Z2CGii
	jmp	L48
L40:
	movl	12(%ebp), %eax
	movb	$1, (%eax)
	jmp	L48
L31:
	cmpb	$49, -9(%ebp)
	je	L48
	cmpb	$50, -9(%ebp)
	je	L48
	cmpb	$51, -9(%ebp)
	je	L48
	cmpb	$52, -9(%ebp)
	jne	L46
L48:
	leave
	.cfi_restore 5
	.cfi_def_cfa 4, 4
	ret
	.cfi_endproc
LFE1298:
	.section .rdata,"dr"
	.align 4
LC25:
	.ascii "-------------------------------------------------------------------------------\0"
	.align 4
LC26:
	.ascii "-                                                                             -\0"
	.align 4
LC27:
	.ascii "-   ***********************************************************************   -\0"
	.align 4
LC28:
	.ascii "-   *                                                                     *   -\0"
LC29:
	.ascii "-   *\0"
LC30:
	.ascii "2.\310\241\317\373\0"
LC31:
	.ascii "*   -\0"
	.text
	.globl	__Z11Skill_BasicP7monsterPb
	.def	__Z11Skill_BasicP7monsterPb;	.scl	2;	.type	32;	.endef
__Z11Skill_BasicP7monsterPb:
LFB1299:
	.cfi_startproc
	pushl	%ebp
	.cfi_def_cfa_offset 8
	.cfi_offset 5, -8
	movl	%esp, %ebp
	.cfi_def_cfa_register 5
	pushl	%ebx
	subl	$36, %esp
	.cfi_offset 3, -12
	jmp	L50
L61:
	movl	$LC6, (%esp)
	call	_system
	movl	$1, (%esp)
	call	__Z3endi
	movl	$LC25, 4(%esp)
	movl	$__ZSt4cout, (%esp)
	call	__ZStlsISt11char_traitsIcEERSt13basic_ostreamIcT_ES5_PKc
	movl	$__ZSt4endlIcSt11char_traitsIcEERSt13basic_ostreamIT_T0_ES6_, (%esp)
	movl	%eax, %ecx
	call	__ZNSolsEPFRSoS_E
	subl	$4, %esp
	movl	$LC26, 4(%esp)
	movl	$__ZSt4cout, (%esp)
	call	__ZStlsISt11char_traitsIcEERSt13basic_ostreamIcT_ES5_PKc
	movl	$__ZSt4endlIcSt11char_traitsIcEERSt13basic_ostreamIT_T0_ES6_, (%esp)
	movl	%eax, %ecx
	call	__ZNSolsEPFRSoS_E
	subl	$4, %esp
	movl	$LC26, 4(%esp)
	movl	$__ZSt4cout, (%esp)
	call	__ZStlsISt11char_traitsIcEERSt13basic_ostreamIcT_ES5_PKc
	movl	$__ZSt4endlIcSt11char_traitsIcEERSt13basic_ostreamIT_T0_ES6_, (%esp)
	movl	%eax, %ecx
	call	__ZNSolsEPFRSoS_E
	subl	$4, %esp
	movl	$LC27, 4(%esp)
	movl	$__ZSt4cout, (%esp)
	call	__ZStlsISt11char_traitsIcEERSt13basic_ostreamIcT_ES5_PKc
	movl	$__ZSt4endlIcSt11char_traitsIcEERSt13basic_ostreamIT_T0_ES6_, (%esp)
	movl	%eax, %ecx
	call	__ZNSolsEPFRSoS_E
	subl	$4, %esp
	movl	$LC28, 4(%esp)
	movl	$__ZSt4cout, (%esp)
	call	__ZStlsISt11char_traitsIcEERSt13basic_ostreamIcT_ES5_PKc
	movl	$__ZSt4endlIcSt11char_traitsIcEERSt13basic_ostreamIT_T0_ES6_, (%esp)
	movl	%eax, %ecx
	call	__ZNSolsEPFRSoS_E
	subl	$4, %esp
	movl	$LC28, 4(%esp)
	movl	$__ZSt4cout, (%esp)
	call	__ZStlsISt11char_traitsIcEERSt13basic_ostreamIcT_ES5_PKc
	movl	$__ZSt4endlIcSt11char_traitsIcEERSt13basic_ostreamIT_T0_ES6_, (%esp)
	movl	%eax, %ecx
	call	__ZNSolsEPFRSoS_E
	subl	$4, %esp
	movl	$1, -16(%ebp)
	jmp	L51
L56:
	movl	$LC29, 4(%esp)
	movl	$__ZSt4cout, (%esp)
	call	__ZStlsISt11char_traitsIcEERSt13basic_ostreamIcT_ES5_PKc
	movl	$27, (%esp)
	call	__Z5spacei
	movl	-16(%ebp), %eax
	cmpl	$1, %eax
	je	L53
	cmpl	$2, %eax
	je	L54
	jmp	L62
L53:
	movl	$LC18, 4(%esp)
	movl	$__ZSt4cout, (%esp)
	call	__ZStlsISt11char_traitsIcEERSt13basic_ostreamIcT_ES5_PKc
	movl	$7, (%esp)
	call	__Z5spacei
	jmp	L55
L54:
	movl	$LC30, 4(%esp)
	movl	$__ZSt4cout, (%esp)
	call	__ZStlsISt11char_traitsIcEERSt13basic_ostreamIcT_ES5_PKc
	movl	$9, (%esp)
	call	__Z5spacei
	jmp	L55
L62:
	movl	$15, (%esp)
	call	__Z5spacei
	nop
L55:
	movl	$27, (%esp)
	call	__Z5spacei
	movl	$LC31, 4(%esp)
	movl	$__ZSt4cout, (%esp)
	call	__ZStlsISt11char_traitsIcEERSt13basic_ostreamIcT_ES5_PKc
	movl	$__ZSt4endlIcSt11char_traitsIcEERSt13basic_ostreamIT_T0_ES6_, (%esp)
	movl	%eax, %ecx
	call	__ZNSolsEPFRSoS_E
	subl	$4, %esp
	addl	$1, -16(%ebp)
L51:
	cmpl	$12, -16(%ebp)
	jle	L56
	movl	$LC28, 4(%esp)
	movl	$__ZSt4cout, (%esp)
	call	__ZStlsISt11char_traitsIcEERSt13basic_ostreamIcT_ES5_PKc
	movl	$__ZSt4endlIcSt11char_traitsIcEERSt13basic_ostreamIT_T0_ES6_, (%esp)
	movl	%eax, %ecx
	call	__ZNSolsEPFRSoS_E
	subl	$4, %esp
	movl	$LC28, 4(%esp)
	movl	$__ZSt4cout, (%esp)
	call	__ZStlsISt11char_traitsIcEERSt13basic_ostreamIcT_ES5_PKc
	movl	$__ZSt4endlIcSt11char_traitsIcEERSt13basic_ostreamIT_T0_ES6_, (%esp)
	movl	%eax, %ecx
	call	__ZNSolsEPFRSoS_E
	subl	$4, %esp
	movl	$LC27, 4(%esp)
	movl	$__ZSt4cout, (%esp)
	call	__ZStlsISt11char_traitsIcEERSt13basic_ostreamIcT_ES5_PKc
	movl	$__ZSt4endlIcSt11char_traitsIcEERSt13basic_ostreamIT_T0_ES6_, (%esp)
	movl	%eax, %ecx
	call	__ZNSolsEPFRSoS_E
	subl	$4, %esp
	movl	$LC26, 4(%esp)
	movl	$__ZSt4cout, (%esp)
	call	__ZStlsISt11char_traitsIcEERSt13basic_ostreamIcT_ES5_PKc
	movl	$__ZSt4endlIcSt11char_traitsIcEERSt13basic_ostreamIT_T0_ES6_, (%esp)
	movl	%eax, %ecx
	call	__ZNSolsEPFRSoS_E
	subl	$4, %esp
	movl	$LC25, 4(%esp)
	movl	$__ZSt4cout, (%esp)
	call	__ZStlsISt11char_traitsIcEERSt13basic_ostreamIcT_ES5_PKc
	movl	$__ZSt4endlIcSt11char_traitsIcEERSt13basic_ostreamIT_T0_ES6_, (%esp)
	movl	%eax, %ecx
	call	__ZNSolsEPFRSoS_E
	subl	$4, %esp
	call	__getch
	movb	%al, -9(%ebp)
	movsbl	-9(%ebp), %eax
	cmpl	$49, %eax
	je	L57
	cmpl	$50, %eax
	je	L58
	jmp	L50
L57:
	movl	_Hero+12, %eax
	testl	%eax, %eax
	jg	L59
	movl	$0, 4(%esp)
	movl	$3, (%esp)
	call	__Z2CGii
	jmp	L50
L59:
	movl	_Hero+12, %eax
	subl	$1, %eax
	movl	%eax, _Hero+12
	movl	_Hero+24, %edx
	movl	%edx, %eax
	sall	$2, %eax
	leal	(%eax,%edx), %ebx
	movl	$20, 4(%esp)
	movl	$10, (%esp)
	call	__Z6Randomii
	addl	%ebx, %eax
	movl	%eax, -20(%ebp)
	movl	-20(%ebp), %eax
	movl	%eax, 4(%esp)
	movl	$12, (%esp)
	call	__Z2CGii
	movl	8(%ebp), %eax
	movl	4(%eax), %eax
	subl	-20(%ebp), %eax
	movl	%eax, %edx
	movl	8(%ebp), %eax
	movl	%edx, 4(%eax)
	jmp	L49
L58:
	movl	12(%ebp), %eax
	movb	$1, (%eax)
	jmp	L49
L50:
	cmpb	$49, -9(%ebp)
	je	L49
	cmpb	$50, -9(%ebp)
	jne	L61
L49:
	movl	-4(%ebp), %ebx
	leave
	.cfi_restore 5
	.cfi_restore 3
	.cfi_def_cfa 4, 4
	ret
	.cfi_endproc
LFE1299:
	.section .rdata,"dr"
	.align 4
LC32:
	.ascii "-                                                       *** ^                 -\0"
	.align 4
LC33:
	.ascii "-                                                       *** |                 -\0"
	.align 4
LC34:
	.ascii "-               ***                                 __   *  |                 -\0"
	.align 4
LC35:
	.ascii "-              *   *  /                            |  |*****|                 -\0"
	.align 4
LC36:
	.ascii "-               ***  /                             |  |  *  |                 -\0"
	.align 4
LC37:
	.ascii "-                *  /                               \\/  ***                   -\0"
	.align 4
LC38:
	.ascii "-               **-+-                                   * *                   -\0"
	.align 4
LC39:
	.ascii "-                **                                     * *                   -\0"
	.align 4
LC40:
	.ascii "-                *                                                            -\0"
	.align 4
LC41:
	.ascii "-               * *                                                           -\0"
	.align 4
LC42:
	.ascii "-              *  *                                                           -\0"
	.align 4
LC43:
	.ascii "-   *    1.\271\245\273\367    2.\267\300\323\371    HP:\0"
	.align 4
LC44:
	.ascii "\11                                  *   -\0"
	.align 4
LC45:
	.ascii "-   *    3.\274\274\304\334              SP:\0"
	.align 4
LC46:
	.ascii "-                                                                                                        *********                                         -\0"
	.align 4
LC47:
	.ascii "-                                        / / /                                                        * *********** *                                      -\0"
	.align 4
LC48:
	.ascii "-                                       /   / /                                                        **         **                                       -\0"
	.align 4
LC49:
	.ascii "-                           *******    /   /   /                                                        *         *                                        -\0"
	.align 4
LC50:
	.ascii "-                          *********  /   /   /                                                          **     **                                         -\0"
	.align 4
LC51:
	.ascii "-                          *       * /   /   /                                                             *****                                           -\0"
	.align 4
LC52:
	.ascii "-                          *       */   /   /                                                            /|  *                                             -\0"
	.align 4
LC53:
	.ascii "-                           *******/   /   /                                                            / |  ****                                          -\0"
	.align 4
LC54:
	.ascii "-                              * *    /   /                                                            |  | ** *                                           -\0"
	.align 4
LC55:
	.ascii "-                             ***    *   /                                                             | *****                                             -\0"
	.align 4
LC56:
	.ascii "-                            ********    *                                                             *  |  *                                             -\0"
	.align 4
LC57:
	.ascii "-                              **  /                                                                   |  |  *                                             -\0"
	.align 4
LC58:
	.ascii "-                              *  *                                                                     \\ |  *                                             -\0"
	.align 4
LC59:
	.ascii "-                              *                                                                         \\| * *                                            -\0"
	.align 4
LC60:
	.ascii "-                             ***                                                                          *   *                                           -\0"
	.align 4
LC61:
	.ascii "-                            *   *                                                                         *   *                                           -\0"
	.align 4
LC62:
	.ascii "-                           *     *                                                                        *                                               -\0"
	.align 4
LC63:
	.ascii "-                          *      *                                                                        *                                               -\0"
	.align 4
LC64:
	.ascii "-                         *       *                                                                                                                        -\0"
LC65:
	.ascii "-    *    1.\271\245\273\367\11"
	.ascii "2.\267\300\323\371\11\11HP:\0"
LC66:
	.ascii "\11Elf Hunter HP:\0"
	.align 4
LC67:
	.ascii "                                                                                     *     -\0"
LC68:
	.ascii "-    *    3.\274\274\304\334\11"
	.ascii "4.\327\264\314\254\11\11SP:\0"
	.align 4
LC69:
	.ascii "                                                                                                         *     -\0"
	.align 4
LC70:
	.ascii "-                                                                                                *****************                                         -\0"
	.align 4
LC71:
	.ascii "-                                                                                           *                         *                                    -\0"
	.align 4
LC72:
	.ascii "-                                                                                        *                               *                                 -\0"
	.align 4
LC73:
	.ascii "-                                        / / /                                         *                                   *                               -\0"
	.align 4
LC74:
	.ascii "-                                       /   / /                                      *                                       *                             -\0"
	.align 4
LC75:
	.ascii "-                           *******    /   /   /                                   *                                           *                           -\0"
	.align 4
LC76:
	.ascii "-                          *********  /   /   /                                   *          ###                  ###           *                          -\0"
	.align 4
LC77:
	.ascii "-                          *       * /   /   /                                   *                                               *                         -\0"
	.align 4
LC78:
	.ascii "-                          *       */   /   /                                   *                                                 *                        -\0"
	.align 4
LC79:
	.ascii "-                           *******/   /   /                                   *                                                   *                       -\0"
	.align 4
LC80:
	.ascii "-                              * *    /   /                                    *                                                   *                       -\0"
	.align 4
LC81:
	.ascii "-                             ***    *   /                                     *                                                   *                       -\0"
	.align 4
LC82:
	.ascii "-                            ********    *                                      *                                                 *                        -\0"
	.align 4
LC83:
	.ascii "-                              **  /                                             *                                               *                         -\0"
	.align 4
LC84:
	.ascii "-                              *  *                                               *                                             *                          -\0"
	.align 4
LC85:
	.ascii "-                              *                                                   **                                         **                           -\0"
	.align 4
LC86:
	.ascii "-                             ***                                                    **                                     **                             -\0"
	.align 4
LC87:
	.ascii "-                            *   *                                                     *************************************                               -\0"
	.align 4
LC88:
	.ascii "-                           *     *                                                                                                                        -\0"
	.align 4
LC89:
	.ascii "-                          *      *                                                                                                                        -\0"
LC90:
	.ascii "\11Slime HP:\0"
	.align 4
LC91:
	.ascii "                                                                                         *     -\0"
LC92:
	.ascii "0001\0"
	.section	.text$_Z5Fighti,"x"
	.linkonce discard
	.globl	__Z5Fighti
	.def	__Z5Fighti;	.scl	2;	.type	32;	.endef
__Z5Fighti:
LFB1300:
	.cfi_startproc
	.cfi_personality 0,___gxx_personality_v0
	.cfi_lsda 0,LLSDA1300
	pushl	%ebp
	.cfi_def_cfa_offset 8
	.cfi_offset 5, -8
	movl	%esp, %ebp
	.cfi_def_cfa_register 5
	pushl	%edi
	pushl	%esi
	pushl	%ebx
	subl	$300, %esp
	.cfi_offset 7, -12
	.cfi_offset 6, -16
	.cfi_offset 3, -20
	cmpl	$1, 8(%ebp)
	jne	L64
	movl	$100, -168(%ebp)
	movl	$150, -164(%ebp)
	movl	$3, -160(%ebp)
	movl	$800, -172(%ebp)
L64:
	cmpl	$2, 8(%ebp)
	jne	L65
	movl	$0, -168(%ebp)
	movl	$10, -164(%ebp)
	movl	$5, -160(%ebp)
	movl	$30, -172(%ebp)
L65:
	cmpl	$3, 8(%ebp)
	jne	L66
	movl	$5, -168(%ebp)
	movl	$9, -164(%ebp)
	movl	$1, -160(%ebp)
	movl	$80, -172(%ebp)
L66:
	cmpl	$1, 8(%ebp)
	jne	L67
	movl	$LC6, (%esp)
	call	_system
	movl	$1, (%esp)
LEHB0:
	call	__Z3endi
	movl	$LC25, 4(%esp)
	movl	$__ZSt4cout, (%esp)
	call	__ZStlsISt11char_traitsIcEERSt13basic_ostreamIcT_ES5_PKc
	movl	$__ZSt4endlIcSt11char_traitsIcEERSt13basic_ostreamIT_T0_ES6_, (%esp)
	movl	%eax, %ecx
	call	__ZNSolsEPFRSoS_E
	subl	$4, %esp
	movl	$LC26, 4(%esp)
	movl	$__ZSt4cout, (%esp)
	call	__ZStlsISt11char_traitsIcEERSt13basic_ostreamIcT_ES5_PKc
	movl	$__ZSt4endlIcSt11char_traitsIcEERSt13basic_ostreamIT_T0_ES6_, (%esp)
	movl	%eax, %ecx
	call	__ZNSolsEPFRSoS_E
	subl	$4, %esp
	movl	$LC26, 4(%esp)
	movl	$__ZSt4cout, (%esp)
	call	__ZStlsISt11char_traitsIcEERSt13basic_ostreamIcT_ES5_PKc
	movl	$__ZSt4endlIcSt11char_traitsIcEERSt13basic_ostreamIT_T0_ES6_, (%esp)
	movl	%eax, %ecx
	call	__ZNSolsEPFRSoS_E
	subl	$4, %esp
	movl	$LC32, 4(%esp)
	movl	$__ZSt4cout, (%esp)
	call	__ZStlsISt11char_traitsIcEERSt13basic_ostreamIcT_ES5_PKc
	movl	$__ZSt4endlIcSt11char_traitsIcEERSt13basic_ostreamIT_T0_ES6_, (%esp)
	movl	%eax, %ecx
	call	__ZNSolsEPFRSoS_E
	subl	$4, %esp
	movl	$LC33, 4(%esp)
	movl	$__ZSt4cout, (%esp)
	call	__ZStlsISt11char_traitsIcEERSt13basic_ostreamIcT_ES5_PKc
	movl	$__ZSt4endlIcSt11char_traitsIcEERSt13basic_ostreamIT_T0_ES6_, (%esp)
	movl	%eax, %ecx
	call	__ZNSolsEPFRSoS_E
	subl	$4, %esp
	movl	$LC34, 4(%esp)
	movl	$__ZSt4cout, (%esp)
	call	__ZStlsISt11char_traitsIcEERSt13basic_ostreamIcT_ES5_PKc
	movl	$__ZSt4endlIcSt11char_traitsIcEERSt13basic_ostreamIT_T0_ES6_, (%esp)
	movl	%eax, %ecx
	call	__ZNSolsEPFRSoS_E
	subl	$4, %esp
	movl	$LC35, 4(%esp)
	movl	$__ZSt4cout, (%esp)
	call	__ZStlsISt11char_traitsIcEERSt13basic_ostreamIcT_ES5_PKc
	movl	$__ZSt4endlIcSt11char_traitsIcEERSt13basic_ostreamIT_T0_ES6_, (%esp)
	movl	%eax, %ecx
	call	__ZNSolsEPFRSoS_E
	subl	$4, %esp
	movl	$LC36, 4(%esp)
	movl	$__ZSt4cout, (%esp)
	call	__ZStlsISt11char_traitsIcEERSt13basic_ostreamIcT_ES5_PKc
	movl	$__ZSt4endlIcSt11char_traitsIcEERSt13basic_ostreamIT_T0_ES6_, (%esp)
	movl	%eax, %ecx
	call	__ZNSolsEPFRSoS_E
	subl	$4, %esp
	movl	$LC37, 4(%esp)
	movl	$__ZSt4cout, (%esp)
	call	__ZStlsISt11char_traitsIcEERSt13basic_ostreamIcT_ES5_PKc
	movl	$__ZSt4endlIcSt11char_traitsIcEERSt13basic_ostreamIT_T0_ES6_, (%esp)
	movl	%eax, %ecx
	call	__ZNSolsEPFRSoS_E
	subl	$4, %esp
	movl	$LC38, 4(%esp)
	movl	$__ZSt4cout, (%esp)
	call	__ZStlsISt11char_traitsIcEERSt13basic_ostreamIcT_ES5_PKc
	movl	$__ZSt4endlIcSt11char_traitsIcEERSt13basic_ostreamIT_T0_ES6_, (%esp)
	movl	%eax, %ecx
	call	__ZNSolsEPFRSoS_E
	subl	$4, %esp
	movl	$LC39, 4(%esp)
	movl	$__ZSt4cout, (%esp)
	call	__ZStlsISt11char_traitsIcEERSt13basic_ostreamIcT_ES5_PKc
	movl	$__ZSt4endlIcSt11char_traitsIcEERSt13basic_ostreamIT_T0_ES6_, (%esp)
	movl	%eax, %ecx
	call	__ZNSolsEPFRSoS_E
	subl	$4, %esp
	movl	$LC40, 4(%esp)
	movl	$__ZSt4cout, (%esp)
	call	__ZStlsISt11char_traitsIcEERSt13basic_ostreamIcT_ES5_PKc
	movl	$__ZSt4endlIcSt11char_traitsIcEERSt13basic_ostreamIT_T0_ES6_, (%esp)
	movl	%eax, %ecx
	call	__ZNSolsEPFRSoS_E
	subl	$4, %esp
	movl	$LC41, 4(%esp)
	movl	$__ZSt4cout, (%esp)
	call	__ZStlsISt11char_traitsIcEERSt13basic_ostreamIcT_ES5_PKc
	movl	$__ZSt4endlIcSt11char_traitsIcEERSt13basic_ostreamIT_T0_ES6_, (%esp)
	movl	%eax, %ecx
	call	__ZNSolsEPFRSoS_E
	subl	$4, %esp
	movl	$LC42, 4(%esp)
	movl	$__ZSt4cout, (%esp)
	call	__ZStlsISt11char_traitsIcEERSt13basic_ostreamIcT_ES5_PKc
	movl	$__ZSt4endlIcSt11char_traitsIcEERSt13basic_ostreamIT_T0_ES6_, (%esp)
	movl	%eax, %ecx
	call	__ZNSolsEPFRSoS_E
	subl	$4, %esp
	movl	$LC26, 4(%esp)
	movl	$__ZSt4cout, (%esp)
	call	__ZStlsISt11char_traitsIcEERSt13basic_ostreamIcT_ES5_PKc
	movl	$__ZSt4endlIcSt11char_traitsIcEERSt13basic_ostreamIT_T0_ES6_, (%esp)
	movl	%eax, %ecx
	call	__ZNSolsEPFRSoS_E
	subl	$4, %esp
	movl	$LC27, 4(%esp)
	movl	$__ZSt4cout, (%esp)
	call	__ZStlsISt11char_traitsIcEERSt13basic_ostreamIcT_ES5_PKc
	movl	$__ZSt4endlIcSt11char_traitsIcEERSt13basic_ostreamIT_T0_ES6_, (%esp)
	movl	%eax, %ecx
	call	__ZNSolsEPFRSoS_E
	subl	$4, %esp
	movl	$LC28, 4(%esp)
	movl	$__ZSt4cout, (%esp)
	call	__ZStlsISt11char_traitsIcEERSt13basic_ostreamIcT_ES5_PKc
	movl	$__ZSt4endlIcSt11char_traitsIcEERSt13basic_ostreamIT_T0_ES6_, (%esp)
	movl	%eax, %ecx
	call	__ZNSolsEPFRSoS_E
	subl	$4, %esp
	movl	_Hero+4, %ebx
	movl	$LC43, 4(%esp)
	movl	$__ZSt4cout, (%esp)
	call	__ZStlsISt11char_traitsIcEERSt13basic_ostreamIcT_ES5_PKc
	movl	%ebx, (%esp)
	movl	%eax, %ecx
	call	__ZNSolsEi
	subl	$4, %esp
	movl	$LC44, 4(%esp)
	movl	%eax, (%esp)
	call	__ZStlsISt11char_traitsIcEERSt13basic_ostreamIcT_ES5_PKc
	movl	$__ZSt4endlIcSt11char_traitsIcEERSt13basic_ostreamIT_T0_ES6_, (%esp)
	movl	%eax, %ecx
	call	__ZNSolsEPFRSoS_E
	subl	$4, %esp
	movl	_Hero+12, %ebx
	movl	$LC45, 4(%esp)
	movl	$__ZSt4cout, (%esp)
	call	__ZStlsISt11char_traitsIcEERSt13basic_ostreamIcT_ES5_PKc
	movl	%ebx, (%esp)
	movl	%eax, %ecx
	call	__ZNSolsEi
	subl	$4, %esp
	movl	$LC44, 4(%esp)
	movl	%eax, (%esp)
	call	__ZStlsISt11char_traitsIcEERSt13basic_ostreamIcT_ES5_PKc
	movl	$__ZSt4endlIcSt11char_traitsIcEERSt13basic_ostreamIT_T0_ES6_, (%esp)
	movl	%eax, %ecx
	call	__ZNSolsEPFRSoS_E
	subl	$4, %esp
	movl	$LC28, 4(%esp)
	movl	$__ZSt4cout, (%esp)
	call	__ZStlsISt11char_traitsIcEERSt13basic_ostreamIcT_ES5_PKc
	movl	$__ZSt4endlIcSt11char_traitsIcEERSt13basic_ostreamIT_T0_ES6_, (%esp)
	movl	%eax, %ecx
	call	__ZNSolsEPFRSoS_E
	subl	$4, %esp
	movl	$LC27, 4(%esp)
	movl	$__ZSt4cout, (%esp)
	call	__ZStlsISt11char_traitsIcEERSt13basic_ostreamIcT_ES5_PKc
	movl	$__ZSt4endlIcSt11char_traitsIcEERSt13basic_ostreamIT_T0_ES6_, (%esp)
	movl	%eax, %ecx
	call	__ZNSolsEPFRSoS_E
	subl	$4, %esp
	movl	$LC26, 4(%esp)
	movl	$__ZSt4cout, (%esp)
	call	__ZStlsISt11char_traitsIcEERSt13basic_ostreamIcT_ES5_PKc
	movl	$__ZSt4endlIcSt11char_traitsIcEERSt13basic_ostreamIT_T0_ES6_, (%esp)
	movl	%eax, %ecx
	call	__ZNSolsEPFRSoS_E
	subl	$4, %esp
	movl	$LC25, 4(%esp)
	movl	$__ZSt4cout, (%esp)
	call	__ZStlsISt11char_traitsIcEERSt13basic_ostreamIcT_ES5_PKc
	movl	$__ZSt4endlIcSt11char_traitsIcEERSt13basic_ostreamIT_T0_ES6_, (%esp)
	movl	%eax, %ecx
	call	__ZNSolsEPFRSoS_E
	subl	$4, %esp
L67:
	cmpl	$2, 8(%ebp)
	jne	L68
	movl	$LC6, (%esp)
	call	_system
	movl	$LC13, 4(%esp)
	movl	$__ZSt4cout, (%esp)
	call	__ZStlsISt11char_traitsIcEERSt13basic_ostreamIcT_ES5_PKc
	movl	$__ZSt4endlIcSt11char_traitsIcEERSt13basic_ostreamIT_T0_ES6_, (%esp)
	movl	%eax, %ecx
	call	__ZNSolsEPFRSoS_E
	subl	$4, %esp
	movl	$LC14, 4(%esp)
	movl	$__ZSt4cout, (%esp)
	call	__ZStlsISt11char_traitsIcEERSt13basic_ostreamIcT_ES5_PKc
	movl	$__ZSt4endlIcSt11char_traitsIcEERSt13basic_ostreamIT_T0_ES6_, (%esp)
	movl	%eax, %ecx
	call	__ZNSolsEPFRSoS_E
	subl	$4, %esp
	movl	$LC14, 4(%esp)
	movl	$__ZSt4cout, (%esp)
	call	__ZStlsISt11char_traitsIcEERSt13basic_ostreamIcT_ES5_PKc
	movl	$__ZSt4endlIcSt11char_traitsIcEERSt13basic_ostreamIT_T0_ES6_, (%esp)
	movl	%eax, %ecx
	call	__ZNSolsEPFRSoS_E
	subl	$4, %esp
	movl	$LC14, 4(%esp)
	movl	$__ZSt4cout, (%esp)
	call	__ZStlsISt11char_traitsIcEERSt13basic_ostreamIcT_ES5_PKc
	movl	$__ZSt4endlIcSt11char_traitsIcEERSt13basic_ostreamIT_T0_ES6_, (%esp)
	movl	%eax, %ecx
	call	__ZNSolsEPFRSoS_E
	subl	$4, %esp
	movl	$LC14, 4(%esp)
	movl	$__ZSt4cout, (%esp)
	call	__ZStlsISt11char_traitsIcEERSt13basic_ostreamIcT_ES5_PKc
	movl	$__ZSt4endlIcSt11char_traitsIcEERSt13basic_ostreamIT_T0_ES6_, (%esp)
	movl	%eax, %ecx
	call	__ZNSolsEPFRSoS_E
	subl	$4, %esp
	movl	$LC46, 4(%esp)
	movl	$__ZSt4cout, (%esp)
	call	__ZStlsISt11char_traitsIcEERSt13basic_ostreamIcT_ES5_PKc
	movl	$__ZSt4endlIcSt11char_traitsIcEERSt13basic_ostreamIT_T0_ES6_, (%esp)
	movl	%eax, %ecx
	call	__ZNSolsEPFRSoS_E
	subl	$4, %esp
	movl	$LC47, 4(%esp)
	movl	$__ZSt4cout, (%esp)
	call	__ZStlsISt11char_traitsIcEERSt13basic_ostreamIcT_ES5_PKc
	movl	$__ZSt4endlIcSt11char_traitsIcEERSt13basic_ostreamIT_T0_ES6_, (%esp)
	movl	%eax, %ecx
	call	__ZNSolsEPFRSoS_E
	subl	$4, %esp
	movl	$LC48, 4(%esp)
	movl	$__ZSt4cout, (%esp)
	call	__ZStlsISt11char_traitsIcEERSt13basic_ostreamIcT_ES5_PKc
	movl	$__ZSt4endlIcSt11char_traitsIcEERSt13basic_ostreamIT_T0_ES6_, (%esp)
	movl	%eax, %ecx
	call	__ZNSolsEPFRSoS_E
	subl	$4, %esp
	movl	$LC49, 4(%esp)
	movl	$__ZSt4cout, (%esp)
	call	__ZStlsISt11char_traitsIcEERSt13basic_ostreamIcT_ES5_PKc
	movl	$__ZSt4endlIcSt11char_traitsIcEERSt13basic_ostreamIT_T0_ES6_, (%esp)
	movl	%eax, %ecx
	call	__ZNSolsEPFRSoS_E
	subl	$4, %esp
	movl	$LC50, 4(%esp)
	movl	$__ZSt4cout, (%esp)
	call	__ZStlsISt11char_traitsIcEERSt13basic_ostreamIcT_ES5_PKc
	movl	$__ZSt4endlIcSt11char_traitsIcEERSt13basic_ostreamIT_T0_ES6_, (%esp)
	movl	%eax, %ecx
	call	__ZNSolsEPFRSoS_E
	subl	$4, %esp
	movl	$LC51, 4(%esp)
	movl	$__ZSt4cout, (%esp)
	call	__ZStlsISt11char_traitsIcEERSt13basic_ostreamIcT_ES5_PKc
	movl	$__ZSt4endlIcSt11char_traitsIcEERSt13basic_ostreamIT_T0_ES6_, (%esp)
	movl	%eax, %ecx
	call	__ZNSolsEPFRSoS_E
	subl	$4, %esp
	movl	$LC52, 4(%esp)
	movl	$__ZSt4cout, (%esp)
	call	__ZStlsISt11char_traitsIcEERSt13basic_ostreamIcT_ES5_PKc
	movl	$__ZSt4endlIcSt11char_traitsIcEERSt13basic_ostreamIT_T0_ES6_, (%esp)
	movl	%eax, %ecx
	call	__ZNSolsEPFRSoS_E
	subl	$4, %esp
	movl	$LC53, 4(%esp)
	movl	$__ZSt4cout, (%esp)
	call	__ZStlsISt11char_traitsIcEERSt13basic_ostreamIcT_ES5_PKc
	movl	$__ZSt4endlIcSt11char_traitsIcEERSt13basic_ostreamIT_T0_ES6_, (%esp)
	movl	%eax, %ecx
	call	__ZNSolsEPFRSoS_E
	subl	$4, %esp
	movl	$LC54, 4(%esp)
	movl	$__ZSt4cout, (%esp)
	call	__ZStlsISt11char_traitsIcEERSt13basic_ostreamIcT_ES5_PKc
	movl	$__ZSt4endlIcSt11char_traitsIcEERSt13basic_ostreamIT_T0_ES6_, (%esp)
	movl	%eax, %ecx
	call	__ZNSolsEPFRSoS_E
	subl	$4, %esp
	movl	$LC55, 4(%esp)
	movl	$__ZSt4cout, (%esp)
	call	__ZStlsISt11char_traitsIcEERSt13basic_ostreamIcT_ES5_PKc
	movl	$__ZSt4endlIcSt11char_traitsIcEERSt13basic_ostreamIT_T0_ES6_, (%esp)
	movl	%eax, %ecx
	call	__ZNSolsEPFRSoS_E
	subl	$4, %esp
	movl	$LC56, 4(%esp)
	movl	$__ZSt4cout, (%esp)
	call	__ZStlsISt11char_traitsIcEERSt13basic_ostreamIcT_ES5_PKc
	movl	$__ZSt4endlIcSt11char_traitsIcEERSt13basic_ostreamIT_T0_ES6_, (%esp)
	movl	%eax, %ecx
	call	__ZNSolsEPFRSoS_E
	subl	$4, %esp
	movl	$LC57, 4(%esp)
	movl	$__ZSt4cout, (%esp)
	call	__ZStlsISt11char_traitsIcEERSt13basic_ostreamIcT_ES5_PKc
	movl	$__ZSt4endlIcSt11char_traitsIcEERSt13basic_ostreamIT_T0_ES6_, (%esp)
	movl	%eax, %ecx
	call	__ZNSolsEPFRSoS_E
	subl	$4, %esp
	movl	$LC58, 4(%esp)
	movl	$__ZSt4cout, (%esp)
	call	__ZStlsISt11char_traitsIcEERSt13basic_ostreamIcT_ES5_PKc
	movl	$__ZSt4endlIcSt11char_traitsIcEERSt13basic_ostreamIT_T0_ES6_, (%esp)
	movl	%eax, %ecx
	call	__ZNSolsEPFRSoS_E
	subl	$4, %esp
	movl	$LC59, 4(%esp)
	movl	$__ZSt4cout, (%esp)
	call	__ZStlsISt11char_traitsIcEERSt13basic_ostreamIcT_ES5_PKc
	movl	$__ZSt4endlIcSt11char_traitsIcEERSt13basic_ostreamIT_T0_ES6_, (%esp)
	movl	%eax, %ecx
	call	__ZNSolsEPFRSoS_E
	subl	$4, %esp
	movl	$LC60, 4(%esp)
	movl	$__ZSt4cout, (%esp)
	call	__ZStlsISt11char_traitsIcEERSt13basic_ostreamIcT_ES5_PKc
	movl	$__ZSt4endlIcSt11char_traitsIcEERSt13basic_ostreamIT_T0_ES6_, (%esp)
	movl	%eax, %ecx
	call	__ZNSolsEPFRSoS_E
	subl	$4, %esp
	movl	$LC61, 4(%esp)
	movl	$__ZSt4cout, (%esp)
	call	__ZStlsISt11char_traitsIcEERSt13basic_ostreamIcT_ES5_PKc
	movl	$__ZSt4endlIcSt11char_traitsIcEERSt13basic_ostreamIT_T0_ES6_, (%esp)
	movl	%eax, %ecx
	call	__ZNSolsEPFRSoS_E
	subl	$4, %esp
	movl	$LC62, 4(%esp)
	movl	$__ZSt4cout, (%esp)
	call	__ZStlsISt11char_traitsIcEERSt13basic_ostreamIcT_ES5_PKc
	movl	$__ZSt4endlIcSt11char_traitsIcEERSt13basic_ostreamIT_T0_ES6_, (%esp)
	movl	%eax, %ecx
	call	__ZNSolsEPFRSoS_E
	subl	$4, %esp
	movl	$LC63, 4(%esp)
	movl	$__ZSt4cout, (%esp)
	call	__ZStlsISt11char_traitsIcEERSt13basic_ostreamIcT_ES5_PKc
	movl	$__ZSt4endlIcSt11char_traitsIcEERSt13basic_ostreamIT_T0_ES6_, (%esp)
	movl	%eax, %ecx
	call	__ZNSolsEPFRSoS_E
	subl	$4, %esp
	movl	$LC64, 4(%esp)
	movl	$__ZSt4cout, (%esp)
	call	__ZStlsISt11char_traitsIcEERSt13basic_ostreamIcT_ES5_PKc
	movl	$__ZSt4endlIcSt11char_traitsIcEERSt13basic_ostreamIT_T0_ES6_, (%esp)
	movl	%eax, %ecx
	call	__ZNSolsEPFRSoS_E
	subl	$4, %esp
	movl	$LC14, 4(%esp)
	movl	$__ZSt4cout, (%esp)
	call	__ZStlsISt11char_traitsIcEERSt13basic_ostreamIcT_ES5_PKc
	movl	$__ZSt4endlIcSt11char_traitsIcEERSt13basic_ostreamIT_T0_ES6_, (%esp)
	movl	%eax, %ecx
	call	__ZNSolsEPFRSoS_E
	subl	$4, %esp
	movl	$LC15, 4(%esp)
	movl	$__ZSt4cout, (%esp)
	call	__ZStlsISt11char_traitsIcEERSt13basic_ostreamIcT_ES5_PKc
	movl	$__ZSt4endlIcSt11char_traitsIcEERSt13basic_ostreamIT_T0_ES6_, (%esp)
	movl	%eax, %ecx
	call	__ZNSolsEPFRSoS_E
	subl	$4, %esp
	movl	$LC16, 4(%esp)
	movl	$__ZSt4cout, (%esp)
	call	__ZStlsISt11char_traitsIcEERSt13basic_ostreamIcT_ES5_PKc
	movl	$__ZSt4endlIcSt11char_traitsIcEERSt13basic_ostreamIT_T0_ES6_, (%esp)
	movl	%eax, %ecx
	call	__ZNSolsEPFRSoS_E
	subl	$4, %esp
	movl	-172(%ebp), %ebx
	movl	_Hero+4, %esi
	movl	$LC65, 4(%esp)
	movl	$__ZSt4cout, (%esp)
	call	__ZStlsISt11char_traitsIcEERSt13basic_ostreamIcT_ES5_PKc
	movl	%esi, (%esp)
	movl	%eax, %ecx
	call	__ZNSolsEi
	subl	$4, %esp
	movl	$LC66, 4(%esp)
	movl	%eax, (%esp)
	call	__ZStlsISt11char_traitsIcEERSt13basic_ostreamIcT_ES5_PKc
	movl	%ebx, (%esp)
	movl	%eax, %ecx
	call	__ZNSolsEi
	subl	$4, %esp
	movl	$LC67, 4(%esp)
	movl	%eax, (%esp)
	call	__ZStlsISt11char_traitsIcEERSt13basic_ostreamIcT_ES5_PKc
	movl	$__ZSt4endlIcSt11char_traitsIcEERSt13basic_ostreamIT_T0_ES6_, (%esp)
	movl	%eax, %ecx
	call	__ZNSolsEPFRSoS_E
	subl	$4, %esp
	movl	_Hero+12, %ebx
	movl	$LC68, 4(%esp)
	movl	$__ZSt4cout, (%esp)
	call	__ZStlsISt11char_traitsIcEERSt13basic_ostreamIcT_ES5_PKc
	movl	%ebx, (%esp)
	movl	%eax, %ecx
	call	__ZNSolsEi
	subl	$4, %esp
	movl	$LC69, 4(%esp)
	movl	%eax, (%esp)
	call	__ZStlsISt11char_traitsIcEERSt13basic_ostreamIcT_ES5_PKc
	movl	$__ZSt4endlIcSt11char_traitsIcEERSt13basic_ostreamIT_T0_ES6_, (%esp)
	movl	%eax, %ecx
	call	__ZNSolsEPFRSoS_E
	subl	$4, %esp
	movl	$LC16, 4(%esp)
	movl	$__ZSt4cout, (%esp)
	call	__ZStlsISt11char_traitsIcEERSt13basic_ostreamIcT_ES5_PKc
	movl	$__ZSt4endlIcSt11char_traitsIcEERSt13basic_ostreamIT_T0_ES6_, (%esp)
	movl	%eax, %ecx
	call	__ZNSolsEPFRSoS_E
	subl	$4, %esp
	movl	$LC16, 4(%esp)
	movl	$__ZSt4cout, (%esp)
	call	__ZStlsISt11char_traitsIcEERSt13basic_ostreamIcT_ES5_PKc
	movl	$__ZSt4endlIcSt11char_traitsIcEERSt13basic_ostreamIT_T0_ES6_, (%esp)
	movl	%eax, %ecx
	call	__ZNSolsEPFRSoS_E
	subl	$4, %esp
	movl	$LC15, 4(%esp)
	movl	$__ZSt4cout, (%esp)
	call	__ZStlsISt11char_traitsIcEERSt13basic_ostreamIcT_ES5_PKc
	movl	$__ZSt4endlIcSt11char_traitsIcEERSt13basic_ostreamIT_T0_ES6_, (%esp)
	movl	%eax, %ecx
	call	__ZNSolsEPFRSoS_E
	subl	$4, %esp
	movl	$LC14, 4(%esp)
	movl	$__ZSt4cout, (%esp)
	call	__ZStlsISt11char_traitsIcEERSt13basic_ostreamIcT_ES5_PKc
	movl	$__ZSt4endlIcSt11char_traitsIcEERSt13basic_ostreamIT_T0_ES6_, (%esp)
	movl	%eax, %ecx
	call	__ZNSolsEPFRSoS_E
	subl	$4, %esp
	movl	$LC13, 4(%esp)
	movl	$__ZSt4cout, (%esp)
	call	__ZStlsISt11char_traitsIcEERSt13basic_ostreamIcT_ES5_PKc
	movl	$__ZSt4endlIcSt11char_traitsIcEERSt13basic_ostreamIT_T0_ES6_, (%esp)
	movl	%eax, %ecx
	call	__ZNSolsEPFRSoS_E
	subl	$4, %esp
L68:
	cmpl	$3, 8(%ebp)
	jne	L69
	movl	$LC6, (%esp)
	call	_system
	movl	$LC13, 4(%esp)
	movl	$__ZSt4cout, (%esp)
	call	__ZStlsISt11char_traitsIcEERSt13basic_ostreamIcT_ES5_PKc
	movl	$__ZSt4endlIcSt11char_traitsIcEERSt13basic_ostreamIT_T0_ES6_, (%esp)
	movl	%eax, %ecx
	call	__ZNSolsEPFRSoS_E
	subl	$4, %esp
	movl	$LC14, 4(%esp)
	movl	$__ZSt4cout, (%esp)
	call	__ZStlsISt11char_traitsIcEERSt13basic_ostreamIcT_ES5_PKc
	movl	$__ZSt4endlIcSt11char_traitsIcEERSt13basic_ostreamIT_T0_ES6_, (%esp)
	movl	%eax, %ecx
	call	__ZNSolsEPFRSoS_E
	subl	$4, %esp
	movl	$LC14, 4(%esp)
	movl	$__ZSt4cout, (%esp)
	call	__ZStlsISt11char_traitsIcEERSt13basic_ostreamIcT_ES5_PKc
	movl	$__ZSt4endlIcSt11char_traitsIcEERSt13basic_ostreamIT_T0_ES6_, (%esp)
	movl	%eax, %ecx
	call	__ZNSolsEPFRSoS_E
	subl	$4, %esp
	movl	$LC70, 4(%esp)
	movl	$__ZSt4cout, (%esp)
	call	__ZStlsISt11char_traitsIcEERSt13basic_ostreamIcT_ES5_PKc
	movl	$__ZSt4endlIcSt11char_traitsIcEERSt13basic_ostreamIT_T0_ES6_, (%esp)
	movl	%eax, %ecx
	call	__ZNSolsEPFRSoS_E
	subl	$4, %esp
	movl	$LC71, 4(%esp)
	movl	$__ZSt4cout, (%esp)
	call	__ZStlsISt11char_traitsIcEERSt13basic_ostreamIcT_ES5_PKc
	movl	$__ZSt4endlIcSt11char_traitsIcEERSt13basic_ostreamIT_T0_ES6_, (%esp)
	movl	%eax, %ecx
	call	__ZNSolsEPFRSoS_E
	subl	$4, %esp
	movl	$LC72, 4(%esp)
	movl	$__ZSt4cout, (%esp)
	call	__ZStlsISt11char_traitsIcEERSt13basic_ostreamIcT_ES5_PKc
	movl	$__ZSt4endlIcSt11char_traitsIcEERSt13basic_ostreamIT_T0_ES6_, (%esp)
	movl	%eax, %ecx
	call	__ZNSolsEPFRSoS_E
	subl	$4, %esp
	movl	$LC73, 4(%esp)
	movl	$__ZSt4cout, (%esp)
	call	__ZStlsISt11char_traitsIcEERSt13basic_ostreamIcT_ES5_PKc
	movl	$__ZSt4endlIcSt11char_traitsIcEERSt13basic_ostreamIT_T0_ES6_, (%esp)
	movl	%eax, %ecx
	call	__ZNSolsEPFRSoS_E
	subl	$4, %esp
	movl	$LC74, 4(%esp)
	movl	$__ZSt4cout, (%esp)
	call	__ZStlsISt11char_traitsIcEERSt13basic_ostreamIcT_ES5_PKc
	movl	$__ZSt4endlIcSt11char_traitsIcEERSt13basic_ostreamIT_T0_ES6_, (%esp)
	movl	%eax, %ecx
	call	__ZNSolsEPFRSoS_E
	subl	$4, %esp
	movl	$LC75, 4(%esp)
	movl	$__ZSt4cout, (%esp)
	call	__ZStlsISt11char_traitsIcEERSt13basic_ostreamIcT_ES5_PKc
	movl	$__ZSt4endlIcSt11char_traitsIcEERSt13basic_ostreamIT_T0_ES6_, (%esp)
	movl	%eax, %ecx
	call	__ZNSolsEPFRSoS_E
	subl	$4, %esp
	movl	$LC76, 4(%esp)
	movl	$__ZSt4cout, (%esp)
	call	__ZStlsISt11char_traitsIcEERSt13basic_ostreamIcT_ES5_PKc
	movl	$__ZSt4endlIcSt11char_traitsIcEERSt13basic_ostreamIT_T0_ES6_, (%esp)
	movl	%eax, %ecx
	call	__ZNSolsEPFRSoS_E
	subl	$4, %esp
	movl	$LC77, 4(%esp)
	movl	$__ZSt4cout, (%esp)
	call	__ZStlsISt11char_traitsIcEERSt13basic_ostreamIcT_ES5_PKc
	movl	$__ZSt4endlIcSt11char_traitsIcEERSt13basic_ostreamIT_T0_ES6_, (%esp)
	movl	%eax, %ecx
	call	__ZNSolsEPFRSoS_E
	subl	$4, %esp
	movl	$LC78, 4(%esp)
	movl	$__ZSt4cout, (%esp)
	call	__ZStlsISt11char_traitsIcEERSt13basic_ostreamIcT_ES5_PKc
	movl	$__ZSt4endlIcSt11char_traitsIcEERSt13basic_ostreamIT_T0_ES6_, (%esp)
	movl	%eax, %ecx
	call	__ZNSolsEPFRSoS_E
	subl	$4, %esp
	movl	$LC79, 4(%esp)
	movl	$__ZSt4cout, (%esp)
	call	__ZStlsISt11char_traitsIcEERSt13basic_ostreamIcT_ES5_PKc
	movl	$__ZSt4endlIcSt11char_traitsIcEERSt13basic_ostreamIT_T0_ES6_, (%esp)
	movl	%eax, %ecx
	call	__ZNSolsEPFRSoS_E
	subl	$4, %esp
	movl	$LC80, 4(%esp)
	movl	$__ZSt4cout, (%esp)
	call	__ZStlsISt11char_traitsIcEERSt13basic_ostreamIcT_ES5_PKc
	movl	$__ZSt4endlIcSt11char_traitsIcEERSt13basic_ostreamIT_T0_ES6_, (%esp)
	movl	%eax, %ecx
	call	__ZNSolsEPFRSoS_E
	subl	$4, %esp
	movl	$LC81, 4(%esp)
	movl	$__ZSt4cout, (%esp)
	call	__ZStlsISt11char_traitsIcEERSt13basic_ostreamIcT_ES5_PKc
	movl	$__ZSt4endlIcSt11char_traitsIcEERSt13basic_ostreamIT_T0_ES6_, (%esp)
	movl	%eax, %ecx
	call	__ZNSolsEPFRSoS_E
	subl	$4, %esp
	movl	$LC82, 4(%esp)
	movl	$__ZSt4cout, (%esp)
	call	__ZStlsISt11char_traitsIcEERSt13basic_ostreamIcT_ES5_PKc
	movl	$__ZSt4endlIcSt11char_traitsIcEERSt13basic_ostreamIT_T0_ES6_, (%esp)
	movl	%eax, %ecx
	call	__ZNSolsEPFRSoS_E
	subl	$4, %esp
	movl	$LC83, 4(%esp)
	movl	$__ZSt4cout, (%esp)
	call	__ZStlsISt11char_traitsIcEERSt13basic_ostreamIcT_ES5_PKc
	movl	$__ZSt4endlIcSt11char_traitsIcEERSt13basic_ostreamIT_T0_ES6_, (%esp)
	movl	%eax, %ecx
	call	__ZNSolsEPFRSoS_E
	subl	$4, %esp
	movl	$LC84, 4(%esp)
	movl	$__ZSt4cout, (%esp)
	call	__ZStlsISt11char_traitsIcEERSt13basic_ostreamIcT_ES5_PKc
	movl	$__ZSt4endlIcSt11char_traitsIcEERSt13basic_ostreamIT_T0_ES6_, (%esp)
	movl	%eax, %ecx
	call	__ZNSolsEPFRSoS_E
	subl	$4, %esp
	movl	$LC85, 4(%esp)
	movl	$__ZSt4cout, (%esp)
	call	__ZStlsISt11char_traitsIcEERSt13basic_ostreamIcT_ES5_PKc
	movl	$__ZSt4endlIcSt11char_traitsIcEERSt13basic_ostreamIT_T0_ES6_, (%esp)
	movl	%eax, %ecx
	call	__ZNSolsEPFRSoS_E
	subl	$4, %esp
	movl	$LC86, 4(%esp)
	movl	$__ZSt4cout, (%esp)
	call	__ZStlsISt11char_traitsIcEERSt13basic_ostreamIcT_ES5_PKc
	movl	$__ZSt4endlIcSt11char_traitsIcEERSt13basic_ostreamIT_T0_ES6_, (%esp)
	movl	%eax, %ecx
	call	__ZNSolsEPFRSoS_E
	subl	$4, %esp
	movl	$LC87, 4(%esp)
	movl	$__ZSt4cout, (%esp)
	call	__ZStlsISt11char_traitsIcEERSt13basic_ostreamIcT_ES5_PKc
	movl	$__ZSt4endlIcSt11char_traitsIcEERSt13basic_ostreamIT_T0_ES6_, (%esp)
	movl	%eax, %ecx
	call	__ZNSolsEPFRSoS_E
	subl	$4, %esp
	movl	$LC88, 4(%esp)
	movl	$__ZSt4cout, (%esp)
	call	__ZStlsISt11char_traitsIcEERSt13basic_ostreamIcT_ES5_PKc
	movl	$__ZSt4endlIcSt11char_traitsIcEERSt13basic_ostreamIT_T0_ES6_, (%esp)
	movl	%eax, %ecx
	call	__ZNSolsEPFRSoS_E
	subl	$4, %esp
	movl	$LC89, 4(%esp)
	movl	$__ZSt4cout, (%esp)
	call	__ZStlsISt11char_traitsIcEERSt13basic_ostreamIcT_ES5_PKc
	movl	$__ZSt4endlIcSt11char_traitsIcEERSt13basic_ostreamIT_T0_ES6_, (%esp)
	movl	%eax, %ecx
	call	__ZNSolsEPFRSoS_E
	subl	$4, %esp
	movl	$LC64, 4(%esp)
	movl	$__ZSt4cout, (%esp)
	call	__ZStlsISt11char_traitsIcEERSt13basic_ostreamIcT_ES5_PKc
	movl	$__ZSt4endlIcSt11char_traitsIcEERSt13basic_ostreamIT_T0_ES6_, (%esp)
	movl	%eax, %ecx
	call	__ZNSolsEPFRSoS_E
	subl	$4, %esp
	movl	$LC14, 4(%esp)
	movl	$__ZSt4cout, (%esp)
	call	__ZStlsISt11char_traitsIcEERSt13basic_ostreamIcT_ES5_PKc
	movl	$__ZSt4endlIcSt11char_traitsIcEERSt13basic_ostreamIT_T0_ES6_, (%esp)
	movl	%eax, %ecx
	call	__ZNSolsEPFRSoS_E
	subl	$4, %esp
	movl	$LC15, 4(%esp)
	movl	$__ZSt4cout, (%esp)
	call	__ZStlsISt11char_traitsIcEERSt13basic_ostreamIcT_ES5_PKc
	movl	$__ZSt4endlIcSt11char_traitsIcEERSt13basic_ostreamIT_T0_ES6_, (%esp)
	movl	%eax, %ecx
	call	__ZNSolsEPFRSoS_E
	subl	$4, %esp
	movl	$LC16, 4(%esp)
	movl	$__ZSt4cout, (%esp)
	call	__ZStlsISt11char_traitsIcEERSt13basic_ostreamIcT_ES5_PKc
	movl	$__ZSt4endlIcSt11char_traitsIcEERSt13basic_ostreamIT_T0_ES6_, (%esp)
	movl	%eax, %ecx
	call	__ZNSolsEPFRSoS_E
	subl	$4, %esp
	movl	-172(%ebp), %ebx
	movl	_Hero+4, %esi
	movl	$LC65, 4(%esp)
	movl	$__ZSt4cout, (%esp)
	call	__ZStlsISt11char_traitsIcEERSt13basic_ostreamIcT_ES5_PKc
	movl	%esi, (%esp)
	movl	%eax, %ecx
	call	__ZNSolsEi
	subl	$4, %esp
	movl	$LC90, 4(%esp)
	movl	%eax, (%esp)
	call	__ZStlsISt11char_traitsIcEERSt13basic_ostreamIcT_ES5_PKc
	movl	%ebx, (%esp)
	movl	%eax, %ecx
	call	__ZNSolsEi
	subl	$4, %esp
	movl	$LC91, 4(%esp)
	movl	%eax, (%esp)
	call	__ZStlsISt11char_traitsIcEERSt13basic_ostreamIcT_ES5_PKc
	movl	$__ZSt4endlIcSt11char_traitsIcEERSt13basic_ostreamIT_T0_ES6_, (%esp)
	movl	%eax, %ecx
	call	__ZNSolsEPFRSoS_E
	subl	$4, %esp
	movl	_Hero+12, %ebx
	movl	$LC68, 4(%esp)
	movl	$__ZSt4cout, (%esp)
	call	__ZStlsISt11char_traitsIcEERSt13basic_ostreamIcT_ES5_PKc
	movl	%ebx, (%esp)
	movl	%eax, %ecx
	call	__ZNSolsEi
	subl	$4, %esp
	movl	$LC69, 4(%esp)
	movl	%eax, (%esp)
	call	__ZStlsISt11char_traitsIcEERSt13basic_ostreamIcT_ES5_PKc
	movl	$__ZSt4endlIcSt11char_traitsIcEERSt13basic_ostreamIT_T0_ES6_, (%esp)
	movl	%eax, %ecx
	call	__ZNSolsEPFRSoS_E
	subl	$4, %esp
	movl	$LC16, 4(%esp)
	movl	$__ZSt4cout, (%esp)
	call	__ZStlsISt11char_traitsIcEERSt13basic_ostreamIcT_ES5_PKc
	movl	$__ZSt4endlIcSt11char_traitsIcEERSt13basic_ostreamIT_T0_ES6_, (%esp)
	movl	%eax, %ecx
	call	__ZNSolsEPFRSoS_E
	subl	$4, %esp
	movl	$LC16, 4(%esp)
	movl	$__ZSt4cout, (%esp)
	call	__ZStlsISt11char_traitsIcEERSt13basic_ostreamIcT_ES5_PKc
	movl	$__ZSt4endlIcSt11char_traitsIcEERSt13basic_ostreamIT_T0_ES6_, (%esp)
	movl	%eax, %ecx
	call	__ZNSolsEPFRSoS_E
	subl	$4, %esp
	movl	$LC15, 4(%esp)
	movl	$__ZSt4cout, (%esp)
	call	__ZStlsISt11char_traitsIcEERSt13basic_ostreamIcT_ES5_PKc
	movl	$__ZSt4endlIcSt11char_traitsIcEERSt13basic_ostreamIT_T0_ES6_, (%esp)
	movl	%eax, %ecx
	call	__ZNSolsEPFRSoS_E
	subl	$4, %esp
	movl	$LC14, 4(%esp)
	movl	$__ZSt4cout, (%esp)
	call	__ZStlsISt11char_traitsIcEERSt13basic_ostreamIcT_ES5_PKc
	movl	$__ZSt4endlIcSt11char_traitsIcEERSt13basic_ostreamIT_T0_ES6_, (%esp)
	movl	%eax, %ecx
	call	__ZNSolsEPFRSoS_E
	subl	$4, %esp
	movl	$LC13, 4(%esp)
	movl	$__ZSt4cout, (%esp)
	call	__ZStlsISt11char_traitsIcEERSt13basic_ostreamIcT_ES5_PKc
	movl	$__ZSt4endlIcSt11char_traitsIcEERSt13basic_ostreamIT_T0_ES6_, (%esp)
	movl	%eax, %ecx
	call	__ZNSolsEPFRSoS_E
	subl	$4, %esp
L69:
	call	__getch
	movb	%al, -37(%ebp)
	cmpl	$1, 8(%ebp)
	jne	L70
	movl	$20, 4(%esp)
	movl	$1, (%esp)
	call	__Z6Randomii
	movl	%eax, -28(%ebp)
	jmp	L71
L70:
	movl	$20, 4(%esp)
	movl	$11, (%esp)
	call	__Z6Randomii
	movl	%eax, -28(%ebp)
L71:
	movsbl	-37(%ebp), %eax
	subl	$49, %eax
	cmpl	$4, %eax
	ja	L72
	movl	L74(,%eax,4), %eax
	jmp	*%eax
	.section .rdata,"dr"
	.align 4
L74:
	.long	L73
	.long	L75
	.long	L76
	.long	L77
	.long	L130
	.section	.text$_Z5Fighti,"x"
	.linkonce discard
L73:
	cmpl	$18, -28(%ebp)
	jle	L79
	cmpl	$20, -28(%ebp)
	jg	L79
	movl	$14, 4(%esp)
	movl	$9, (%esp)
	call	__Z6Randomii
	movl	%eax, (%esp)
	call	__Z15Change_a_littlei
	movl	_Hero+24, %edx
	addl	%edx, %eax
	movl	%eax, -32(%ebp)
	cmpl	$0, -32(%ebp)
	jns	L80
	movl	$0, -32(%ebp)
L80:
	cmpl	$1, 8(%ebp)
	jne	L81
	movl	-32(%ebp), %eax
	addl	%eax, %eax
	movl	%eax, 4(%esp)
	movl	$4, (%esp)
	call	__Z2CGii
L81:
	cmpl	$2, 8(%ebp)
	jne	L82
	movl	-32(%ebp), %eax
	addl	%eax, %eax
	movl	%eax, 4(%esp)
	movl	$18, (%esp)
	call	__Z2CGii
L82:
	cmpl	$3, 8(%ebp)
	jne	L83
	movl	-32(%ebp), %eax
	addl	%eax, %eax
	movl	%eax, 4(%esp)
	movl	$27, (%esp)
	call	__Z2CGii
L83:
	movl	-172(%ebp), %edx
	movl	-32(%ebp), %ecx
	movl	$0, %eax
	subl	%ecx, %eax
	addl	%eax, %eax
	addl	%edx, %eax
	movl	%eax, -172(%ebp)
L79:
	cmpl	$10, -28(%ebp)
	jle	L84
	cmpl	$18, -28(%ebp)
	jg	L84
	movl	$14, 4(%esp)
	movl	$9, (%esp)
	call	__Z6Randomii
	movl	%eax, (%esp)
	call	__Z15Change_a_littlei
	movl	_Hero+24, %edx
	addl	%edx, %eax
	movl	%eax, -32(%ebp)
	cmpl	$0, -32(%ebp)
	jns	L85
	movl	$0, -32(%ebp)
L85:
	cmpl	$1, 8(%ebp)
	jne	L86
	movl	-32(%ebp), %eax
	movl	%eax, 4(%esp)
	movl	$8, (%esp)
	call	__Z2CGii
L86:
	cmpl	$2, 8(%ebp)
	jne	L87
	movl	-32(%ebp), %eax
	movl	%eax, 4(%esp)
	movl	$17, (%esp)
	call	__Z2CGii
L87:
	cmpl	$3, 8(%ebp)
	jne	L88
	movl	-32(%ebp), %eax
	movl	%eax, 4(%esp)
	movl	$26, (%esp)
	call	__Z2CGii
L88:
	movl	-172(%ebp), %eax
	subl	-32(%ebp), %eax
	movl	%eax, -172(%ebp)
L84:
	cmpl	$10, -28(%ebp)
	jg	L89
	cmpl	$0, -28(%ebp)
	js	L89
	movl	$14, 4(%esp)
	movl	$9, (%esp)
	call	__Z6Randomii
	movl	%eax, (%esp)
	call	__Z15Change_a_littlei
	movl	_Hero+24, %edx
	addl	%eax, %edx
	movl	-168(%ebp), %eax
	subl	%eax, %edx
	movl	%edx, %eax
	movl	%eax, -32(%ebp)
	cmpl	$0, -32(%ebp)
	jns	L90
	movl	$0, -32(%ebp)
L90:
	cmpl	$1, 8(%ebp)
	jne	L91
	movl	-32(%ebp), %eax
	movl	%eax, 4(%esp)
	movl	$9, (%esp)
	call	__Z2CGii
LEHE0:
L91:
	movl	-172(%ebp), %eax
	subl	-32(%ebp), %eax
	movl	%eax, -172(%ebp)
L89:
	cmpl	$20, -28(%ebp)
	jg	L92
	cmpl	$0, -28(%ebp)
	jns	L93
L92:
	leal	-45(%ebp), %eax
	movl	%eax, %ecx
	call	__ZNSaIcEC1Ev
	leal	-52(%ebp), %eax
	leal	-45(%ebp), %edx
	movl	%edx, 4(%esp)
	movl	$LC92, (%esp)
	movl	%eax, %ecx
LEHB1:
	call	__ZNSsC1EPKcRKSaIcE
LEHE1:
	subl	$8, %esp
	leal	-38(%ebp), %eax
	movl	%eax, %ecx
	call	__ZNSaIcEC1Ev
	leal	-44(%ebp), %eax
	leal	-38(%ebp), %edx
	movl	%edx, 4(%esp)
	movl	$LC92, (%esp)
	movl	%eax, %ecx
LEHB2:
	call	__ZNSsC1EPKcRKSaIcE
LEHE2:
	subl	$8, %esp
	leal	-52(%ebp), %eax
	movl	%eax, 4(%esp)
	leal	-44(%ebp), %eax
	movl	%eax, (%esp)
LEHB3:
	call	__Z5checkSsSs
LEHE3:
	leal	-44(%ebp), %eax
	movl	%eax, %ecx
LEHB4:
	call	__ZNSsD1Ev
LEHE4:
	leal	-38(%ebp), %eax
	movl	%eax, %ecx
	call	__ZNSaIcED1Ev
	leal	-52(%ebp), %eax
	movl	%eax, %ecx
LEHB5:
	call	__ZNSsD1Ev
LEHE5:
	leal	-45(%ebp), %eax
	movl	%eax, %ecx
	call	__ZNSaIcED1Ev
	movl	-28(%ebp), %eax
	movl	%eax, (%esp)
	movl	$__ZSt4cout, %ecx
LEHB6:
	call	__ZNSolsEi
	subl	$4, %esp
	movl	$__ZSt4endlIcSt11char_traitsIcEERSt13basic_ostreamIT_T0_ES6_, (%esp)
	movl	%eax, %ecx
	call	__ZNSolsEPFRSoS_E
	subl	$4, %esp
	movl	$LC3, (%esp)
	call	_system
L93:
	movl	-172(%ebp), %eax
	testl	%eax, %eax
	jg	L94
	jmp	L72
L94:
	movl	$14, 4(%esp)
	movl	$9, (%esp)
	call	__Z6Randomii
	movl	%eax, (%esp)
	call	__Z15Change_a_littlei
	movl	-164(%ebp), %edx
	addl	%edx, %eax
	movl	%eax, -32(%ebp)
	cmpl	$0, -32(%ebp)
	jns	L95
	movl	$0, -32(%ebp)
L95:
	cmpl	$1, 8(%ebp)
	jne	L96
	movl	-32(%ebp), %eax
	movl	%eax, 4(%esp)
	movl	$7, (%esp)
	call	__Z2CGii
L96:
	cmpl	$2, 8(%ebp)
	jne	L97
	movl	-32(%ebp), %eax
	movl	%eax, 4(%esp)
	movl	$20, (%esp)
	call	__Z2CGii
L97:
	cmpl	$3, 8(%ebp)
	jne	L98
	movl	-32(%ebp), %eax
	movl	%eax, 4(%esp)
	movl	$23, (%esp)
	call	__Z2CGii
L98:
	movl	_Hero+4, %eax
	subl	-32(%ebp), %eax
	movl	%eax, _Hero+4
	jmp	L72
L75:
	cmpl	$2, 8(%ebp)
	jne	L99
	movl	$0, 4(%esp)
	movl	$19, (%esp)
	call	__Z2CGii
	jmp	L72
L99:
	cmpl	$3, 8(%ebp)
	jne	L100
	movl	$0, 4(%esp)
	movl	$25, (%esp)
	call	__Z2CGii
	jmp	L72
L100:
	movl	$14, 4(%esp)
	movl	$9, (%esp)
	call	__Z6Randomii
	movl	%eax, (%esp)
	call	__Z15Change_a_littlei
	movl	_Hero+20, %edx
	subl	%edx, %eax
	movl	%eax, %edx
	movl	-164(%ebp), %eax
	addl	%edx, %eax
	movl	%eax, -36(%ebp)
	cmpl	$0, -36(%ebp)
	jns	L101
	movl	$0, -36(%ebp)
L101:
	cmpl	$1, 8(%ebp)
	jne	L102
	movl	-36(%ebp), %eax
	movl	%eax, 4(%esp)
	movl	$5, (%esp)
	call	__Z2CGii
LEHE6:
L102:
	movl	_Hero+4, %eax
	subl	-36(%ebp), %eax
	movl	%eax, _Hero+4
	movl	_Hero+12, %eax
	addl	$1, %eax
	movl	%eax, _Hero+12
	jmp	L72
L76:
	movb	$0, -53(%ebp)
	movl	_Hero+152, %eax
	testl	%eax, %eax
	jne	L103
	movl	$0, 4(%esp)
	movl	$3, (%esp)
LEHB7:
	call	__Z2CGii
	jmp	L104
L103:
	cmpl	$1, 8(%ebp)
	jne	L105
	leal	-53(%ebp), %eax
	movl	%eax, 4(%esp)
	leal	-176(%ebp), %eax
	movl	%eax, (%esp)
	call	__Z11Skill_BasicP7monsterPb
	jmp	L104
L105:
	movl	8(%ebp), %eax
	movl	%eax, 8(%esp)
	leal	-53(%ebp), %eax
	movl	%eax, 4(%esp)
	leal	-176(%ebp), %eax
	movl	%eax, (%esp)
	call	__Z5SkillP7monsterPbi
L104:
	movl	-172(%ebp), %eax
	testl	%eax, %eax
	jg	L106
	jmp	L72
L106:
	movzbl	-53(%ebp), %eax
	testb	%al, %al
	je	L108
	jmp	L72
L108:
	movl	$14, 4(%esp)
	movl	$9, (%esp)
	call	__Z6Randomii
	movl	%eax, (%esp)
	call	__Z15Change_a_littlei
	movl	-164(%ebp), %edx
	addl	%edx, %eax
	movl	%eax, -32(%ebp)
	cmpl	$0, -32(%ebp)
	jns	L109
	movl	$0, -32(%ebp)
L109:
	cmpl	$1, 8(%ebp)
	jne	L110
	movl	-32(%ebp), %eax
	movl	%eax, 4(%esp)
	movl	$7, (%esp)
	call	__Z2CGii
L110:
	cmpl	$2, 8(%ebp)
	jne	L111
	movl	-32(%ebp), %eax
	movl	%eax, 4(%esp)
	movl	$20, (%esp)
	call	__Z2CGii
L111:
	cmpl	$3, 8(%ebp)
	jne	L112
	movl	-32(%ebp), %eax
	movl	%eax, 4(%esp)
	movl	$23, (%esp)
	call	__Z2CGii
LEHE7:
L112:
	movl	_Hero+4, %eax
	subl	-32(%ebp), %eax
	movl	%eax, _Hero+4
	nop
	jmp	L72
L77:
	cmpl	$1, 8(%ebp)
	jne	L113
	jmp	L72
L113:
	movl	%esp, %edx
	leal	-176(%ebp), %ebx
	movl	$30, %eax
	movl	%edx, %edi
	movl	%ebx, %esi
	movl	%eax, %ecx
	rep movsl
LEHB8:
	call	__Z10Check_Body7monster
	jmp	L72
L130:
	nop
L72:
	movl	-172(%ebp), %eax
	testl	%eax, %eax
	jg	L114
	cmpl	$1, 8(%ebp)
	jne	L115
	movl	$1, 4(%esp)
	movl	$0, (%esp)
	call	__Z2CGii
	jmp	L116
L115:
	movl	$0, 4(%esp)
	movl	$0, (%esp)
	call	__Z2CGii
L116:
	movl	_Hero+160, %eax
	addl	$1, %eax
	movl	%eax, _Hero+160
	movl	_Hero+8, %eax
	movl	%eax, _Hero+4
	movl	_Hero+16, %eax
	movl	%eax, _Hero+12
	jmp	L63
L114:
	movl	_Hero+4, %eax
	testl	%eax, %eax
	jg	L118
	movl	$LC2, (%esp)
	call	_system
	movl	$0, 4(%esp)
	movl	$11, (%esp)
	call	__Z2CGii
	movl	$0, 4(%esp)
	movl	$10, (%esp)
	call	__Z2CGii
LEHE8:
	jmp	L63
L118:
	jmp	L66
L128:
	movl	%eax, %ebx
	leal	-44(%ebp), %eax
	movl	%eax, %ecx
	call	__ZNSsD1Ev
	jmp	L121
L127:
	movl	%eax, %ebx
L121:
	leal	-38(%ebp), %eax
	movl	%eax, %ecx
	call	__ZNSaIcED1Ev
	leal	-52(%ebp), %eax
	movl	%eax, %ecx
	call	__ZNSsD1Ev
	jmp	L122
L126:
	movl	%eax, %ebx
L122:
	leal	-45(%ebp), %eax
	movl	%eax, %ecx
	call	__ZNSaIcED1Ev
	movl	%ebx, %eax
	jmp	L123
L129:
	jmp	L123
L125:
L123:
	movl	%eax, (%esp)
LEHB9:
	call	__Unwind_Resume
LEHE9:
L63:
	leal	-12(%ebp), %esp
	popl	%ebx
	.cfi_restore 3
	popl	%esi
	.cfi_restore 6
	popl	%edi
	.cfi_restore 7
	popl	%ebp
	.cfi_restore 5
	.cfi_def_cfa 4, 4
	ret
	.cfi_endproc
LFE1300:
	.def	___gxx_personality_v0;	.scl	2;	.type	32;	.endef
	.section	.gcc_except_table,"w"
LLSDA1300:
	.byte	0xff
	.byte	0xff
	.byte	0x1
	.uleb128 LLSDACSE1300-LLSDACSB1300
LLSDACSB1300:
	.uleb128 LEHB0-LFB1300
	.uleb128 LEHE0-LEHB0
	.uleb128 L125-LFB1300
	.uleb128 0
	.uleb128 LEHB1-LFB1300
	.uleb128 LEHE1-LEHB1
	.uleb128 L126-LFB1300
	.uleb128 0
	.uleb128 LEHB2-LFB1300
	.uleb128 LEHE2-LEHB2
	.uleb128 L127-LFB1300
	.uleb128 0
	.uleb128 LEHB3-LFB1300
	.uleb128 LEHE3-LEHB3
	.uleb128 L128-LFB1300
	.uleb128 0
	.uleb128 LEHB4-LFB1300
	.uleb128 LEHE4-LEHB4
	.uleb128 L127-LFB1300
	.uleb128 0
	.uleb128 LEHB5-LFB1300
	.uleb128 LEHE5-LEHB5
	.uleb128 L126-LFB1300
	.uleb128 0
	.uleb128 LEHB6-LFB1300
	.uleb128 LEHE6-LEHB6
	.uleb128 L125-LFB1300
	.uleb128 0
	.uleb128 LEHB7-LFB1300
	.uleb128 LEHE7-LEHB7
	.uleb128 L129-LFB1300
	.uleb128 0
	.uleb128 LEHB8-LFB1300
	.uleb128 LEHE8-LEHB8
	.uleb128 L125-LFB1300
	.uleb128 0
	.uleb128 LEHB9-LFB1300
	.uleb128 LEHE9-LEHB9
	.uleb128 0
	.uleb128 0
LLSDACSE1300:
	.section	.text$_Z5Fighti,"x"
	.linkonce discard
	.section .rdata,"dr"
	.align 4
LC93:
	.ascii "                                                                                                                                                            \0"
	.align 4
LC94:
	.ascii "                                                              \304\343\265\304\321\252\301\277      : \0"
LC95:
	.ascii "/\0"
	.align 4
LC96:
	.ascii "                                                              \304\343\265\304\314\345\301\246      : \0"
	.align 4
LC97:
	.ascii "                                                              \304\343\265\304\271\245\273\367\301\246    : \0"
	.align 4
LC98:
	.ascii "                                                              \304\343\265\304\267\300\323\371\301\246    : \0"
	.align 4
LC99:
	.ascii "                                                              \304\343\265\304\313\331\266\310      : \0"
	.align 4
LC100:
	.ascii "                                                              \304\343\265\304\265\310\274\266      : \0"
	.align 4
LC101:
	.ascii "                                                              \304\343\265\304\276\255\321\351\326\265    : \0"
	.align 4
LC102:
	.ascii "                                                              \271\326\316\357\265\304\321\252\301\277    : \0"
	.align 4
LC103:
	.ascii "                                                              \271\326\316\357\265\304\314\345\301\246    : \0"
	.align 4
LC104:
	.ascii "                                                              \271\326\316\357\265\304\271\245\273\367\301\246  : \0"
	.align 4
LC105:
	.ascii "                                                              \271\326\316\357\265\304\267\300\323\371\301\246  : \0"
	.text
	.globl	__Z10Check_Body7monster
	.def	__Z10Check_Body7monster;	.scl	2;	.type	32;	.endef
__Z10Check_Body7monster:
LFB1301:
	.cfi_startproc
	pushl	%ebp
	.cfi_def_cfa_offset 8
	.cfi_offset 5, -8
	movl	%esp, %ebp
	.cfi_def_cfa_register 5
	pushl	%esi
	pushl	%ebx
	subl	$16, %esp
	.cfi_offset 6, -12
	.cfi_offset 3, -16
	movl	$LC6, (%esp)
	call	_system
	movl	$LC93, 4(%esp)
	movl	$__ZSt4cout, (%esp)
	call	__ZStlsISt11char_traitsIcEERSt13basic_ostreamIcT_ES5_PKc
	movl	$__ZSt4endlIcSt11char_traitsIcEERSt13basic_ostreamIT_T0_ES6_, (%esp)
	movl	%eax, %ecx
	call	__ZNSolsEPFRSoS_E
	subl	$4, %esp
	movl	$LC93, 4(%esp)
	movl	$__ZSt4cout, (%esp)
	call	__ZStlsISt11char_traitsIcEERSt13basic_ostreamIcT_ES5_PKc
	movl	$__ZSt4endlIcSt11char_traitsIcEERSt13basic_ostreamIT_T0_ES6_, (%esp)
	movl	%eax, %ecx
	call	__ZNSolsEPFRSoS_E
	subl	$4, %esp
	movl	$LC93, 4(%esp)
	movl	$__ZSt4cout, (%esp)
	call	__ZStlsISt11char_traitsIcEERSt13basic_ostreamIcT_ES5_PKc
	movl	$__ZSt4endlIcSt11char_traitsIcEERSt13basic_ostreamIT_T0_ES6_, (%esp)
	movl	%eax, %ecx
	call	__ZNSolsEPFRSoS_E
	subl	$4, %esp
	movl	$LC93, 4(%esp)
	movl	$__ZSt4cout, (%esp)
	call	__ZStlsISt11char_traitsIcEERSt13basic_ostreamIcT_ES5_PKc
	movl	$__ZSt4endlIcSt11char_traitsIcEERSt13basic_ostreamIT_T0_ES6_, (%esp)
	movl	%eax, %ecx
	call	__ZNSolsEPFRSoS_E
	subl	$4, %esp
	movl	$LC93, 4(%esp)
	movl	$__ZSt4cout, (%esp)
	call	__ZStlsISt11char_traitsIcEERSt13basic_ostreamIcT_ES5_PKc
	movl	$__ZSt4endlIcSt11char_traitsIcEERSt13basic_ostreamIT_T0_ES6_, (%esp)
	movl	%eax, %ecx
	call	__ZNSolsEPFRSoS_E
	subl	$4, %esp
	movl	_Hero+8, %ebx
	movl	_Hero+4, %esi
	movl	$LC94, 4(%esp)
	movl	$__ZSt4cout, (%esp)
	call	__ZStlsISt11char_traitsIcEERSt13basic_ostreamIcT_ES5_PKc
	movl	%esi, (%esp)
	movl	%eax, %ecx
	call	__ZNSolsEi
	subl	$4, %esp
	movl	$LC95, 4(%esp)
	movl	%eax, (%esp)
	call	__ZStlsISt11char_traitsIcEERSt13basic_ostreamIcT_ES5_PKc
	movl	%ebx, (%esp)
	movl	%eax, %ecx
	call	__ZNSolsEi
	subl	$4, %esp
	movl	$__ZSt4endlIcSt11char_traitsIcEERSt13basic_ostreamIT_T0_ES6_, (%esp)
	movl	%eax, %ecx
	call	__ZNSolsEPFRSoS_E
	subl	$4, %esp
	movl	_Hero+16, %ebx
	movl	_Hero+12, %esi
	movl	$LC96, 4(%esp)
	movl	$__ZSt4cout, (%esp)
	call	__ZStlsISt11char_traitsIcEERSt13basic_ostreamIcT_ES5_PKc
	movl	%esi, (%esp)
	movl	%eax, %ecx
	call	__ZNSolsEi
	subl	$4, %esp
	movl	$LC95, 4(%esp)
	movl	%eax, (%esp)
	call	__ZStlsISt11char_traitsIcEERSt13basic_ostreamIcT_ES5_PKc
	movl	%ebx, (%esp)
	movl	%eax, %ecx
	call	__ZNSolsEi
	subl	$4, %esp
	movl	$__ZSt4endlIcSt11char_traitsIcEERSt13basic_ostreamIT_T0_ES6_, (%esp)
	movl	%eax, %ecx
	call	__ZNSolsEPFRSoS_E
	subl	$4, %esp
	movl	_Hero+24, %ebx
	movl	$LC97, 4(%esp)
	movl	$__ZSt4cout, (%esp)
	call	__ZStlsISt11char_traitsIcEERSt13basic_ostreamIcT_ES5_PKc
	movl	%ebx, (%esp)
	movl	%eax, %ecx
	call	__ZNSolsEi
	subl	$4, %esp
	movl	$__ZSt4endlIcSt11char_traitsIcEERSt13basic_ostreamIT_T0_ES6_, (%esp)
	movl	%eax, %ecx
	call	__ZNSolsEPFRSoS_E
	subl	$4, %esp
	movl	_Hero+20, %ebx
	movl	$LC98, 4(%esp)
	movl	$__ZSt4cout, (%esp)
	call	__ZStlsISt11char_traitsIcEERSt13basic_ostreamIcT_ES5_PKc
	movl	%ebx, (%esp)
	movl	%eax, %ecx
	call	__ZNSolsEi
	subl	$4, %esp
	movl	$__ZSt4endlIcSt11char_traitsIcEERSt13basic_ostreamIT_T0_ES6_, (%esp)
	movl	%eax, %ecx
	call	__ZNSolsEPFRSoS_E
	subl	$4, %esp
	movl	_Hero+28, %ebx
	movl	$LC99, 4(%esp)
	movl	$__ZSt4cout, (%esp)
	call	__ZStlsISt11char_traitsIcEERSt13basic_ostreamIcT_ES5_PKc
	movl	%ebx, (%esp)
	movl	%eax, %ecx
	call	__ZNSolsEi
	subl	$4, %esp
	movl	$__ZSt4endlIcSt11char_traitsIcEERSt13basic_ostreamIT_T0_ES6_, (%esp)
	movl	%eax, %ecx
	call	__ZNSolsEPFRSoS_E
	subl	$4, %esp
	movl	_Hero+156, %ebx
	movl	$LC100, 4(%esp)
	movl	$__ZSt4cout, (%esp)
	call	__ZStlsISt11char_traitsIcEERSt13basic_ostreamIcT_ES5_PKc
	movl	%ebx, (%esp)
	movl	%eax, %ecx
	call	__ZNSolsEi
	subl	$4, %esp
	movl	$__ZSt4endlIcSt11char_traitsIcEERSt13basic_ostreamIT_T0_ES6_, (%esp)
	movl	%eax, %ecx
	call	__ZNSolsEPFRSoS_E
	subl	$4, %esp
	movl	_Hero+160, %ebx
	movl	$LC101, 4(%esp)
	movl	$__ZSt4cout, (%esp)
	call	__ZStlsISt11char_traitsIcEERSt13basic_ostreamIcT_ES5_PKc
	movl	%ebx, (%esp)
	movl	%eax, %ecx
	call	__ZNSolsEi
	subl	$4, %esp
	movl	$__ZSt4endlIcSt11char_traitsIcEERSt13basic_ostreamIT_T0_ES6_, (%esp)
	movl	%eax, %ecx
	call	__ZNSolsEPFRSoS_E
	subl	$4, %esp
	movl	$1, (%esp)
	call	__Z3endi
	movl	$1, (%esp)
	call	__Z3endi
	movl	12(%ebp), %ebx
	movl	$LC102, 4(%esp)
	movl	$__ZSt4cout, (%esp)
	call	__ZStlsISt11char_traitsIcEERSt13basic_ostreamIcT_ES5_PKc
	movl	%ebx, (%esp)
	movl	%eax, %ecx
	call	__ZNSolsEi
	subl	$4, %esp
	movl	$__ZSt4endlIcSt11char_traitsIcEERSt13basic_ostreamIT_T0_ES6_, (%esp)
	movl	%eax, %ecx
	call	__ZNSolsEPFRSoS_E
	subl	$4, %esp
	movl	$LC103, 4(%esp)
	movl	$__ZSt4cout, (%esp)
	call	__ZStlsISt11char_traitsIcEERSt13basic_ostreamIcT_ES5_PKc
	movl	$0, (%esp)
	movl	%eax, %ecx
	call	__ZNSolsEi
	subl	$4, %esp
	movl	$__ZSt4endlIcSt11char_traitsIcEERSt13basic_ostreamIT_T0_ES6_, (%esp)
	movl	%eax, %ecx
	call	__ZNSolsEPFRSoS_E
	subl	$4, %esp
	movl	20(%ebp), %ebx
	movl	$LC104, 4(%esp)
	movl	$__ZSt4cout, (%esp)
	call	__ZStlsISt11char_traitsIcEERSt13basic_ostreamIcT_ES5_PKc
	movl	%ebx, (%esp)
	movl	%eax, %ecx
	call	__ZNSolsEi
	subl	$4, %esp
	movl	$__ZSt4endlIcSt11char_traitsIcEERSt13basic_ostreamIT_T0_ES6_, (%esp)
	movl	%eax, %ecx
	call	__ZNSolsEPFRSoS_E
	subl	$4, %esp
	movl	16(%ebp), %ebx
	movl	$LC105, 4(%esp)
	movl	$__ZSt4cout, (%esp)
	call	__ZStlsISt11char_traitsIcEERSt13basic_ostreamIcT_ES5_PKc
	movl	%ebx, (%esp)
	movl	%eax, %ecx
	call	__ZNSolsEi
	subl	$4, %esp
	movl	$__ZSt4endlIcSt11char_traitsIcEERSt13basic_ostreamIT_T0_ES6_, (%esp)
	movl	%eax, %ecx
	call	__ZNSolsEPFRSoS_E
	subl	$4, %esp
	movl	$14, (%esp)
	call	__Z3endi
	movl	$LC3, (%esp)
	call	_system
	leal	-8(%ebp), %esp
	popl	%ebx
	.cfi_restore 3
	popl	%esi
	.cfi_restore 6
	popl	%ebp
	.cfi_restore 5
	.cfi_def_cfa 4, 4
	ret
	.cfi_endproc
LFE1301:
	.section .rdata,"dr"
	.align 4
LC106:
	.ascii "-                                                 __                          -\0"
	.align 4
LC107:
	.ascii "-                                                |  |                         -\0"
	.align 4
LC108:
	.ascii "-                 *******************************|  |                         -\0"
	.align 4
LC109:
	.ascii "-               **                               |  |_______#                 -\0"
	.align 4
LC110:
	.ascii "-             **        -------------------------|   _______##                -\0"
	.align 4
LC111:
	.ascii "-               **                               |  |       #                 -\0"
	.align 4
LC112:
	.ascii "-                                                |__|                         -\0"
LC113:
	.ascii "-\0"
LC114:
	.ascii "->   \0"
LC115:
	.ascii "     \0"
LC116:
	.ascii " \277\252\312\274\323\316\317\267\0"
LC117:
	.ascii " \271\333\277\264\265\330\315\274/\312\300\275\347\271\333\0"
LC118:
	.ascii " \326\306\327\367\327\351\303\373\265\245\0"
LC119:
	.ascii " \315\313\263\366\323\316\317\267\0"
	.align 4
LC120:
	.ascii "-   W S \241\374\241\375Enter \275\370\320\320\262\331\277\330                                 \326\306\327\367\327\351:MS Studio   -\0"
	.section	.text$_Z4Menuv,"x"
	.linkonce discard
	.globl	__Z4Menuv
	.def	__Z4Menuv;	.scl	2;	.type	32;	.endef
__Z4Menuv:
LFB1302:
	.cfi_startproc
	pushl	%ebp
	.cfi_def_cfa_offset 8
	.cfi_offset 5, -8
	movl	%esp, %ebp
	.cfi_def_cfa_register 5
	subl	$40, %esp
	movl	$1, -12(%ebp)
	movl	$4, -20(%ebp)
	movb	$0, -21(%ebp)
L158:
	movl	$LC6, (%esp)
	call	_system
	movl	$LC25, 4(%esp)
	movl	$__ZSt4cout, (%esp)
	call	__ZStlsISt11char_traitsIcEERSt13basic_ostreamIcT_ES5_PKc
	movl	$__ZSt4endlIcSt11char_traitsIcEERSt13basic_ostreamIT_T0_ES6_, (%esp)
	movl	%eax, %ecx
	call	__ZNSolsEPFRSoS_E
	subl	$4, %esp
	movl	$LC106, 4(%esp)
	movl	$__ZSt4cout, (%esp)
	call	__ZStlsISt11char_traitsIcEERSt13basic_ostreamIcT_ES5_PKc
	movl	$__ZSt4endlIcSt11char_traitsIcEERSt13basic_ostreamIT_T0_ES6_, (%esp)
	movl	%eax, %ecx
	call	__ZNSolsEPFRSoS_E
	subl	$4, %esp
	movl	$LC107, 4(%esp)
	movl	$__ZSt4cout, (%esp)
	call	__ZStlsISt11char_traitsIcEERSt13basic_ostreamIcT_ES5_PKc
	movl	$__ZSt4endlIcSt11char_traitsIcEERSt13basic_ostreamIT_T0_ES6_, (%esp)
	movl	%eax, %ecx
	call	__ZNSolsEPFRSoS_E
	subl	$4, %esp
	movl	$LC108, 4(%esp)
	movl	$__ZSt4cout, (%esp)
	call	__ZStlsISt11char_traitsIcEERSt13basic_ostreamIcT_ES5_PKc
	movl	$__ZSt4endlIcSt11char_traitsIcEERSt13basic_ostreamIT_T0_ES6_, (%esp)
	movl	%eax, %ecx
	call	__ZNSolsEPFRSoS_E
	subl	$4, %esp
	movl	$LC109, 4(%esp)
	movl	$__ZSt4cout, (%esp)
	call	__ZStlsISt11char_traitsIcEERSt13basic_ostreamIcT_ES5_PKc
	movl	$__ZSt4endlIcSt11char_traitsIcEERSt13basic_ostreamIT_T0_ES6_, (%esp)
	movl	%eax, %ecx
	call	__ZNSolsEPFRSoS_E
	subl	$4, %esp
	movl	$LC110, 4(%esp)
	movl	$__ZSt4cout, (%esp)
	call	__ZStlsISt11char_traitsIcEERSt13basic_ostreamIcT_ES5_PKc
	movl	$__ZSt4endlIcSt11char_traitsIcEERSt13basic_ostreamIT_T0_ES6_, (%esp)
	movl	%eax, %ecx
	call	__ZNSolsEPFRSoS_E
	subl	$4, %esp
	movl	$LC111, 4(%esp)
	movl	$__ZSt4cout, (%esp)
	call	__ZStlsISt11char_traitsIcEERSt13basic_ostreamIcT_ES5_PKc
	movl	$__ZSt4endlIcSt11char_traitsIcEERSt13basic_ostreamIT_T0_ES6_, (%esp)
	movl	%eax, %ecx
	call	__ZNSolsEPFRSoS_E
	subl	$4, %esp
	movl	$LC108, 4(%esp)
	movl	$__ZSt4cout, (%esp)
	call	__ZStlsISt11char_traitsIcEERSt13basic_ostreamIcT_ES5_PKc
	movl	$__ZSt4endlIcSt11char_traitsIcEERSt13basic_ostreamIT_T0_ES6_, (%esp)
	movl	%eax, %ecx
	call	__ZNSolsEPFRSoS_E
	subl	$4, %esp
	movl	$LC112, 4(%esp)
	movl	$__ZSt4cout, (%esp)
	call	__ZStlsISt11char_traitsIcEERSt13basic_ostreamIcT_ES5_PKc
	movl	$__ZSt4endlIcSt11char_traitsIcEERSt13basic_ostreamIT_T0_ES6_, (%esp)
	movl	%eax, %ecx
	call	__ZNSolsEPFRSoS_E
	subl	$4, %esp
	movl	$LC26, 4(%esp)
	movl	$__ZSt4cout, (%esp)
	call	__ZStlsISt11char_traitsIcEERSt13basic_ostreamIcT_ES5_PKc
	movl	$__ZSt4endlIcSt11char_traitsIcEERSt13basic_ostreamIT_T0_ES6_, (%esp)
	movl	%eax, %ecx
	call	__ZNSolsEPFRSoS_E
	subl	$4, %esp
	movl	$1, -16(%ebp)
	jmp	L133
L143:
	movl	$LC113, 4(%esp)
	movl	$__ZSt4cout, (%esp)
	call	__ZStlsISt11char_traitsIcEERSt13basic_ostreamIcT_ES5_PKc
	movl	$27, (%esp)
	call	__Z5spacei
	movl	-12(%ebp), %eax
	cmpl	-16(%ebp), %eax
	jne	L134
	movl	$LC114, 4(%esp)
	movl	$__ZSt4cout, (%esp)
	call	__ZStlsISt11char_traitsIcEERSt13basic_ostreamIcT_ES5_PKc
	jmp	L135
L134:
	movl	$LC115, 4(%esp)
	movl	$__ZSt4cout, (%esp)
	call	__ZStlsISt11char_traitsIcEERSt13basic_ostreamIcT_ES5_PKc
L135:
	movl	-16(%ebp), %eax
	cmpl	$2, %eax
	je	L137
	cmpl	$2, %eax
	jg	L138
	cmpl	$1, %eax
	je	L139
	jmp	L136
L138:
	cmpl	$3, %eax
	je	L140
	cmpl	$4, %eax
	je	L141
	jmp	L136
L139:
	movl	$LC116, 4(%esp)
	movl	$__ZSt4cout, (%esp)
	call	__ZStlsISt11char_traitsIcEERSt13basic_ostreamIcT_ES5_PKc
	movl	$7, (%esp)
	call	__Z5spacei
	jmp	L142
L137:
	movl	$LC117, 4(%esp)
	movl	$__ZSt4cout, (%esp)
	call	__ZStlsISt11char_traitsIcEERSt13basic_ostreamIcT_ES5_PKc
	jmp	L142
L140:
	movl	$LC118, 4(%esp)
	movl	$__ZSt4cout, (%esp)
	call	__ZStlsISt11char_traitsIcEERSt13basic_ostreamIcT_ES5_PKc
	movl	$5, (%esp)
	call	__Z5spacei
	jmp	L142
L141:
	movl	$LC119, 4(%esp)
	movl	$__ZSt4cout, (%esp)
	call	__ZStlsISt11char_traitsIcEERSt13basic_ostreamIcT_ES5_PKc
	movl	$7, (%esp)
	call	__Z5spacei
	jmp	L142
L136:
	movl	$16, (%esp)
	call	__Z5spacei
	nop
L142:
	movl	$29, (%esp)
	call	__Z5spacei
	movl	$LC113, 4(%esp)
	movl	$__ZSt4cout, (%esp)
	call	__ZStlsISt11char_traitsIcEERSt13basic_ostreamIcT_ES5_PKc
	movl	$__ZSt4endlIcSt11char_traitsIcEERSt13basic_ostreamIT_T0_ES6_, (%esp)
	movl	$__ZSt4cout, %ecx
	call	__ZNSolsEPFRSoS_E
	subl	$4, %esp
	addl	$1, -16(%ebp)
L133:
	cmpl	$8, -16(%ebp)
	jle	L143
	movl	$LC26, 4(%esp)
	movl	$__ZSt4cout, (%esp)
	call	__ZStlsISt11char_traitsIcEERSt13basic_ostreamIcT_ES5_PKc
	movl	$__ZSt4endlIcSt11char_traitsIcEERSt13basic_ostreamIT_T0_ES6_, (%esp)
	movl	%eax, %ecx
	call	__ZNSolsEPFRSoS_E
	subl	$4, %esp
	movl	$LC26, 4(%esp)
	movl	$__ZSt4cout, (%esp)
	call	__ZStlsISt11char_traitsIcEERSt13basic_ostreamIcT_ES5_PKc
	movl	$__ZSt4endlIcSt11char_traitsIcEERSt13basic_ostreamIT_T0_ES6_, (%esp)
	movl	%eax, %ecx
	call	__ZNSolsEPFRSoS_E
	subl	$4, %esp
	movl	$LC120, 4(%esp)
	movl	$__ZSt4cout, (%esp)
	call	__ZStlsISt11char_traitsIcEERSt13basic_ostreamIcT_ES5_PKc
	movl	$__ZSt4endlIcSt11char_traitsIcEERSt13basic_ostreamIT_T0_ES6_, (%esp)
	movl	%eax, %ecx
	call	__ZNSolsEPFRSoS_E
	subl	$4, %esp
	movl	$LC26, 4(%esp)
	movl	$__ZSt4cout, (%esp)
	call	__ZStlsISt11char_traitsIcEERSt13basic_ostreamIcT_ES5_PKc
	movl	$__ZSt4endlIcSt11char_traitsIcEERSt13basic_ostreamIT_T0_ES6_, (%esp)
	movl	%eax, %ecx
	call	__ZNSolsEPFRSoS_E
	subl	$4, %esp
	movl	$LC25, 4(%esp)
	movl	$__ZSt4cout, (%esp)
	call	__ZStlsISt11char_traitsIcEERSt13basic_ostreamIcT_ES5_PKc
	movl	$__ZSt4endlIcSt11char_traitsIcEERSt13basic_ostreamIT_T0_ES6_, (%esp)
	movl	%eax, %ecx
	call	__ZNSolsEPFRSoS_E
	subl	$4, %esp
	call	__getch
	movb	%al, -21(%ebp)
	cmpb	$119, -21(%ebp)
	je	L144
	cmpb	$72, -21(%ebp)
	jne	L145
L144:
	cmpl	$1, -12(%ebp)
	jle	L145
	subl	$1, -12(%ebp)
L145:
	cmpb	$115, -21(%ebp)
	je	L146
	cmpb	$80, -21(%ebp)
	jne	L147
L146:
	movl	-20(%ebp), %eax
	subl	$1, %eax
	cmpl	-12(%ebp), %eax
	jl	L147
	addl	$1, -12(%ebp)
L147:
	cmpb	$13, -21(%ebp)
	jne	L148
	cmpl	$8, -12(%ebp)
	ja	L159
	movl	-12(%ebp), %eax
	sall	$2, %eax
	addl	$L151, %eax
	movl	(%eax), %eax
	jmp	*%eax
	.section .rdata,"dr"
	.align 4
L151:
	.long	L159
	.long	L150
	.long	L152
	.long	L153
	.long	L160
	.long	L159
	.long	L159
	.long	L159
	.long	L155
	.section	.text$_Z4Menuv,"x"
	.linkonce discard
L150:
	call	__Z4Playv
	jmp	L156
L152:
	call	__Z3Mapv
	jmp	L156
L153:
	movl	$LC6, (%esp)
	call	_system
	call	__Z10Maker_Listv
	movl	$LC0, (%esp)
	call	_system
	jmp	L156
L155:
	movl	$2, (%esp)
	call	__Z15Fight_ChuShiHuai
	movl	$LC4, (%esp)
	call	_system
	call	__Z9CG_1_Mazev
	movl	$LC2, (%esp)
	call	_system
L159:
	nop
L156:
L148:
	jmp	L158
L160:
	nop
	leave
	.cfi_restore 5
	.cfi_def_cfa 4, 4
	ret
	.cfi_endproc
LFE1302:
	.section .rdata,"dr"
	.align 4
LC121:
	.ascii "-                                       *                                     -\0"
	.align 4
LC122:
	.ascii "-  \277\255\310\366\264\363\302\275\265\330\315\274                        *                                      -\0"
	.align 4
LC123:
	.ascii "-                                    **                                       -\0"
	.align 4
LC124:
	.ascii "-    ~                          *****                                         -\0"
	.align 4
LC125:
	.ascii "-        ~             ~   *****                                              -\0"
	.align 4
LC126:
	.ascii "-   ~            ~        *     #Godigun       @Phiya                         -\0"
	.align 4
LC127:
	.ascii "-            ~           *                                                    -\0"
	.align 4
LC128:
	.ascii "-        *               *                                                    -\0"
	.align 4
LC129:
	.ascii "-  ~  * *         ~      ********   #Sealidge          / / / / /              -\0"
	.align 4
LC130:
	.ascii "-      ***      ~        *   ~   *                / / / / / / / /             -\0"
	.align 4
LC131:
	.ascii "-       * *     ~       * ~    ~  *            / / / / / / / / / /            -\0"
	.align 4
LC132:
	.ascii "-      *                 ~    ~ ~ *           / / / / / / / / / / /           -\0"
	.align 4
LC133:
	.ascii "-  ~          ~      ~            *            / / / / / / / / / /            -\0"
	.align 4
LC134:
	.ascii "-      ~~         ~      *  ~  ~  *             / / / / / / / /               -\0"
	.align 4
LC135:
	.ascii "-   ~                    ***     *                       / /                  -\0"
	.align 4
LC136:
	.ascii "-        ~     ~         * ******                         /   #Wild City      -\0"
	.align 4
LC137:
	.ascii "-                   ~     *     #Me City                                      -\0"
	.align 4
LC138:
	.ascii "-  @ \312\327\266\274       ~          **                                                 -\0"
	.align 4
LC139:
	.ascii "-  # \272\313\320\304\263\307\312\320         ~      ******              #Ken City                    -\0"
	.align 4
LC140:
	.ascii "-  ~ \272\243           ~      ~         *                                          -\0"
	.align 4
LC141:
	.ascii "-  / \311\263\304\256   ~                        *                                         -\0"
	.align 4
LC142:
	.ascii "-  \277\255\310\366\264\363\302\275\265\330\315\274                        *          [phiya]\312\307[\277\255\310\366\265\333\271\372]\265\304\312\327\266\274\243\254 -\0"
	.align 4
LC143:
	.ascii "-                                    **                  \312\307\325\373\270\366\271\372\274\322\265\304\272\313\320\304\241\243   -\0"
	.align 4
LC144:
	.ascii "- [Godigun]\312\307\322\273\327\371\322\252\310\373\243\254         *****                                         -\0"
	.align 4
LC145:
	.ascii "- \263\307\307\275\316\336\261\310\265\304\274\341\271\314\241\243\271\253\324\252     *****                                              -\0"
	.align 4
LC146:
	.ascii "- \307\260"
	.ascii "168\304\352\265\304[\312\245\325\275]\243\254<\266\361\304\247> *     #Godigun       @Phiya                         -\0"
	.align 4
LC147:
	.ascii "- \310\353\307\326\264\363\302\275\243\254[Godigun] \312\307 *                                                    -\0"
	.align 4
LC148:
	.ascii "- \310\313\300\340\327\356\272\363\265\304\267\300\317\337\243\254\326\256\272\363\324\332 *                     [Sealidge]\312\307[\277\255\310\366\265\333\271\372]\327\356\316\252\267\261\310\331 -\0"
	.align 4
LC149:
	.ascii "- <Ken.Caesar>\265\304\301\354\265\274\317\302\243\254 ********   #Sealidge  \265\304\263\307\312\320\241\243\272\243\321\363\264\370\270\370\325\342\327\371\263\307\312\320\274\253\264\363\265\304 -\0"
	.align 4
LC150:
	.ascii "- \310\313\303\307\322\324[Godigun]\316\252\325\363\265\330\243\254*       *             \262\306\270\273\243\254\265\253\312\261\262\273\312\261\325\342\327\371\263\307\312\320\322\262\273\341\312\334\265\275 -\0"
	.align 4
LC151:
	.ascii "- \263\311\271\246\273\367\315\313<\266\361\304\247>\241\243      *         *            \272\243\300\313\272\315<\266\361\304\247>\265\304\271\245\273\367\241\243           -\0"
	.align 4
LC152:
	.ascii "-                                 *                                           -\0"
	.align 4
LC153:
	.ascii "- [Me City]\324\332[\312\245\325\275]\307\260\312\307           *   [Wild City]\325\375\310\347\306\344\303\373\243\254                   -\0"
	.align 4
LC154:
	.ascii "- \325\373\270\366\264\363\302\275\327\356\264\363\265\304\263\307\312\320\243\254   *        *   \312\307[\277\255\310\366\264\363\302\275]\326\320\327\356\273\354\302\322\265\304\265\330\267\275\241\243            -\0"
	.align 4
LC155:
	.ascii "- \265\253\324\332[\312\245\325\275]\326\320\313\360\312\247\262\322\326\330\243\254 ***     *                                            -\0"
	.align 4
LC156:
	.ascii "- \317\326\324\332\326\273\312\243\317\302\262\320\324\253\266\317\261\332\241\243   * ******                             #Wild City      -\0"
	.align 4
LC157:
	.ascii "-                         *     #Me City                                      -\0"
	.align 4
LC158:
	.ascii "-  @ \312\327\266\274                  **                                                 -\0"
	.align 4
LC159:
	.ascii "-  # \263\307\312\320                    ******              #Ken City                    -\0"
	.align 4
LC160:
	.ascii "-  ~ \272\243                            *     [Ken City]\312\307[\312\245\325\275]\264\363\275\253               -\0"
	.align 4
LC161:
	.ascii "-  / \311\263\304\256                           *        <Ken.Caesar>\265\304\271\312\317\347\241\243             -\0"
	.text
	.globl	__Z3Mapv
	.def	__Z3Mapv;	.scl	2;	.type	32;	.endef
__Z3Mapv:
LFB1303:
	.cfi_startproc
	pushl	%ebp
	.cfi_def_cfa_offset 8
	.cfi_offset 5, -8
	movl	%esp, %ebp
	.cfi_def_cfa_register 5
	subl	$24, %esp
	movl	$LC6, (%esp)
	call	_system
	movl	$1, (%esp)
	call	__Z3endi
	movl	$LC25, 4(%esp)
	movl	$__ZSt4cout, (%esp)
	call	__ZStlsISt11char_traitsIcEERSt13basic_ostreamIcT_ES5_PKc
	movl	$__ZSt4endlIcSt11char_traitsIcEERSt13basic_ostreamIT_T0_ES6_, (%esp)
	movl	%eax, %ecx
	call	__ZNSolsEPFRSoS_E
	subl	$4, %esp
	movl	$LC121, 4(%esp)
	movl	$__ZSt4cout, (%esp)
	call	__ZStlsISt11char_traitsIcEERSt13basic_ostreamIcT_ES5_PKc
	movl	$__ZSt4endlIcSt11char_traitsIcEERSt13basic_ostreamIT_T0_ES6_, (%esp)
	movl	%eax, %ecx
	call	__ZNSolsEPFRSoS_E
	subl	$4, %esp
	movl	$LC122, 4(%esp)
	movl	$__ZSt4cout, (%esp)
	call	__ZStlsISt11char_traitsIcEERSt13basic_ostreamIcT_ES5_PKc
	movl	$__ZSt4endlIcSt11char_traitsIcEERSt13basic_ostreamIT_T0_ES6_, (%esp)
	movl	%eax, %ecx
	call	__ZNSolsEPFRSoS_E
	subl	$4, %esp
	movl	$LC123, 4(%esp)
	movl	$__ZSt4cout, (%esp)
	call	__ZStlsISt11char_traitsIcEERSt13basic_ostreamIcT_ES5_PKc
	movl	$__ZSt4endlIcSt11char_traitsIcEERSt13basic_ostreamIT_T0_ES6_, (%esp)
	movl	%eax, %ecx
	call	__ZNSolsEPFRSoS_E
	subl	$4, %esp
	movl	$LC124, 4(%esp)
	movl	$__ZSt4cout, (%esp)
	call	__ZStlsISt11char_traitsIcEERSt13basic_ostreamIcT_ES5_PKc
	movl	$__ZSt4endlIcSt11char_traitsIcEERSt13basic_ostreamIT_T0_ES6_, (%esp)
	movl	%eax, %ecx
	call	__ZNSolsEPFRSoS_E
	subl	$4, %esp
	movl	$LC125, 4(%esp)
	movl	$__ZSt4cout, (%esp)
	call	__ZStlsISt11char_traitsIcEERSt13basic_ostreamIcT_ES5_PKc
	movl	$__ZSt4endlIcSt11char_traitsIcEERSt13basic_ostreamIT_T0_ES6_, (%esp)
	movl	%eax, %ecx
	call	__ZNSolsEPFRSoS_E
	subl	$4, %esp
	movl	$LC126, 4(%esp)
	movl	$__ZSt4cout, (%esp)
	call	__ZStlsISt11char_traitsIcEERSt13basic_ostreamIcT_ES5_PKc
	movl	$__ZSt4endlIcSt11char_traitsIcEERSt13basic_ostreamIT_T0_ES6_, (%esp)
	movl	%eax, %ecx
	call	__ZNSolsEPFRSoS_E
	subl	$4, %esp
	movl	$LC127, 4(%esp)
	movl	$__ZSt4cout, (%esp)
	call	__ZStlsISt11char_traitsIcEERSt13basic_ostreamIcT_ES5_PKc
	movl	$__ZSt4endlIcSt11char_traitsIcEERSt13basic_ostreamIT_T0_ES6_, (%esp)
	movl	%eax, %ecx
	call	__ZNSolsEPFRSoS_E
	subl	$4, %esp
	movl	$LC128, 4(%esp)
	movl	$__ZSt4cout, (%esp)
	call	__ZStlsISt11char_traitsIcEERSt13basic_ostreamIcT_ES5_PKc
	movl	$__ZSt4endlIcSt11char_traitsIcEERSt13basic_ostreamIT_T0_ES6_, (%esp)
	movl	%eax, %ecx
	call	__ZNSolsEPFRSoS_E
	subl	$4, %esp
	movl	$LC129, 4(%esp)
	movl	$__ZSt4cout, (%esp)
	call	__ZStlsISt11char_traitsIcEERSt13basic_ostreamIcT_ES5_PKc
	movl	$__ZSt4endlIcSt11char_traitsIcEERSt13basic_ostreamIT_T0_ES6_, (%esp)
	movl	%eax, %ecx
	call	__ZNSolsEPFRSoS_E
	subl	$4, %esp
	movl	$LC130, 4(%esp)
	movl	$__ZSt4cout, (%esp)
	call	__ZStlsISt11char_traitsIcEERSt13basic_ostreamIcT_ES5_PKc
	movl	$__ZSt4endlIcSt11char_traitsIcEERSt13basic_ostreamIT_T0_ES6_, (%esp)
	movl	%eax, %ecx
	call	__ZNSolsEPFRSoS_E
	subl	$4, %esp
	movl	$LC131, 4(%esp)
	movl	$__ZSt4cout, (%esp)
	call	__ZStlsISt11char_traitsIcEERSt13basic_ostreamIcT_ES5_PKc
	movl	$__ZSt4endlIcSt11char_traitsIcEERSt13basic_ostreamIT_T0_ES6_, (%esp)
	movl	%eax, %ecx
	call	__ZNSolsEPFRSoS_E
	subl	$4, %esp
	movl	$LC132, 4(%esp)
	movl	$__ZSt4cout, (%esp)
	call	__ZStlsISt11char_traitsIcEERSt13basic_ostreamIcT_ES5_PKc
	movl	$__ZSt4endlIcSt11char_traitsIcEERSt13basic_ostreamIT_T0_ES6_, (%esp)
	movl	%eax, %ecx
	call	__ZNSolsEPFRSoS_E
	subl	$4, %esp
	movl	$LC133, 4(%esp)
	movl	$__ZSt4cout, (%esp)
	call	__ZStlsISt11char_traitsIcEERSt13basic_ostreamIcT_ES5_PKc
	movl	$__ZSt4endlIcSt11char_traitsIcEERSt13basic_ostreamIT_T0_ES6_, (%esp)
	movl	%eax, %ecx
	call	__ZNSolsEPFRSoS_E
	subl	$4, %esp
	movl	$LC134, 4(%esp)
	movl	$__ZSt4cout, (%esp)
	call	__ZStlsISt11char_traitsIcEERSt13basic_ostreamIcT_ES5_PKc
	movl	$__ZSt4endlIcSt11char_traitsIcEERSt13basic_ostreamIT_T0_ES6_, (%esp)
	movl	%eax, %ecx
	call	__ZNSolsEPFRSoS_E
	subl	$4, %esp
	movl	$LC135, 4(%esp)
	movl	$__ZSt4cout, (%esp)
	call	__ZStlsISt11char_traitsIcEERSt13basic_ostreamIcT_ES5_PKc
	movl	$__ZSt4endlIcSt11char_traitsIcEERSt13basic_ostreamIT_T0_ES6_, (%esp)
	movl	%eax, %ecx
	call	__ZNSolsEPFRSoS_E
	subl	$4, %esp
	movl	$LC136, 4(%esp)
	movl	$__ZSt4cout, (%esp)
	call	__ZStlsISt11char_traitsIcEERSt13basic_ostreamIcT_ES5_PKc
	movl	$__ZSt4endlIcSt11char_traitsIcEERSt13basic_ostreamIT_T0_ES6_, (%esp)
	movl	%eax, %ecx
	call	__ZNSolsEPFRSoS_E
	subl	$4, %esp
	movl	$LC137, 4(%esp)
	movl	$__ZSt4cout, (%esp)
	call	__ZStlsISt11char_traitsIcEERSt13basic_ostreamIcT_ES5_PKc
	movl	$__ZSt4endlIcSt11char_traitsIcEERSt13basic_ostreamIT_T0_ES6_, (%esp)
	movl	%eax, %ecx
	call	__ZNSolsEPFRSoS_E
	subl	$4, %esp
	movl	$LC138, 4(%esp)
	movl	$__ZSt4cout, (%esp)
	call	__ZStlsISt11char_traitsIcEERSt13basic_ostreamIcT_ES5_PKc
	movl	$__ZSt4endlIcSt11char_traitsIcEERSt13basic_ostreamIT_T0_ES6_, (%esp)
	movl	%eax, %ecx
	call	__ZNSolsEPFRSoS_E
	subl	$4, %esp
	movl	$LC139, 4(%esp)
	movl	$__ZSt4cout, (%esp)
	call	__ZStlsISt11char_traitsIcEERSt13basic_ostreamIcT_ES5_PKc
	movl	$__ZSt4endlIcSt11char_traitsIcEERSt13basic_ostreamIT_T0_ES6_, (%esp)
	movl	%eax, %ecx
	call	__ZNSolsEPFRSoS_E
	subl	$4, %esp
	movl	$LC140, 4(%esp)
	movl	$__ZSt4cout, (%esp)
	call	__ZStlsISt11char_traitsIcEERSt13basic_ostreamIcT_ES5_PKc
	movl	$__ZSt4endlIcSt11char_traitsIcEERSt13basic_ostreamIT_T0_ES6_, (%esp)
	movl	%eax, %ecx
	call	__ZNSolsEPFRSoS_E
	subl	$4, %esp
	movl	$LC141, 4(%esp)
	movl	$__ZSt4cout, (%esp)
	call	__ZStlsISt11char_traitsIcEERSt13basic_ostreamIcT_ES5_PKc
	movl	$__ZSt4endlIcSt11char_traitsIcEERSt13basic_ostreamIT_T0_ES6_, (%esp)
	movl	%eax, %ecx
	call	__ZNSolsEPFRSoS_E
	subl	$4, %esp
	movl	$LC25, 4(%esp)
	movl	$__ZSt4cout, (%esp)
	call	__ZStlsISt11char_traitsIcEERSt13basic_ostreamIcT_ES5_PKc
	movl	$__ZSt4endlIcSt11char_traitsIcEERSt13basic_ostreamIT_T0_ES6_, (%esp)
	movl	%eax, %ecx
	call	__ZNSolsEPFRSoS_E
	subl	$4, %esp
	movl	$LC3, (%esp)
	call	_system
	movl	$LC6, (%esp)
	call	_system
	movl	$1, (%esp)
	call	__Z3endi
	movl	$LC25, 4(%esp)
	movl	$__ZSt4cout, (%esp)
	call	__ZStlsISt11char_traitsIcEERSt13basic_ostreamIcT_ES5_PKc
	movl	$__ZSt4endlIcSt11char_traitsIcEERSt13basic_ostreamIT_T0_ES6_, (%esp)
	movl	%eax, %ecx
	call	__ZNSolsEPFRSoS_E
	subl	$4, %esp
	movl	$LC121, 4(%esp)
	movl	$__ZSt4cout, (%esp)
	call	__ZStlsISt11char_traitsIcEERSt13basic_ostreamIcT_ES5_PKc
	movl	$__ZSt4endlIcSt11char_traitsIcEERSt13basic_ostreamIT_T0_ES6_, (%esp)
	movl	%eax, %ecx
	call	__ZNSolsEPFRSoS_E
	subl	$4, %esp
	movl	$LC142, 4(%esp)
	movl	$__ZSt4cout, (%esp)
	call	__ZStlsISt11char_traitsIcEERSt13basic_ostreamIcT_ES5_PKc
	movl	$__ZSt4endlIcSt11char_traitsIcEERSt13basic_ostreamIT_T0_ES6_, (%esp)
	movl	%eax, %ecx
	call	__ZNSolsEPFRSoS_E
	subl	$4, %esp
	movl	$LC143, 4(%esp)
	movl	$__ZSt4cout, (%esp)
	call	__ZStlsISt11char_traitsIcEERSt13basic_ostreamIcT_ES5_PKc
	movl	$__ZSt4endlIcSt11char_traitsIcEERSt13basic_ostreamIT_T0_ES6_, (%esp)
	movl	%eax, %ecx
	call	__ZNSolsEPFRSoS_E
	subl	$4, %esp
	movl	$LC144, 4(%esp)
	movl	$__ZSt4cout, (%esp)
	call	__ZStlsISt11char_traitsIcEERSt13basic_ostreamIcT_ES5_PKc
	movl	$__ZSt4endlIcSt11char_traitsIcEERSt13basic_ostreamIT_T0_ES6_, (%esp)
	movl	%eax, %ecx
	call	__ZNSolsEPFRSoS_E
	subl	$4, %esp
	movl	$LC145, 4(%esp)
	movl	$__ZSt4cout, (%esp)
	call	__ZStlsISt11char_traitsIcEERSt13basic_ostreamIcT_ES5_PKc
	movl	$__ZSt4endlIcSt11char_traitsIcEERSt13basic_ostreamIT_T0_ES6_, (%esp)
	movl	%eax, %ecx
	call	__ZNSolsEPFRSoS_E
	subl	$4, %esp
	movl	$LC146, 4(%esp)
	movl	$__ZSt4cout, (%esp)
	call	__ZStlsISt11char_traitsIcEERSt13basic_ostreamIcT_ES5_PKc
	movl	$__ZSt4endlIcSt11char_traitsIcEERSt13basic_ostreamIT_T0_ES6_, (%esp)
	movl	%eax, %ecx
	call	__ZNSolsEPFRSoS_E
	subl	$4, %esp
	movl	$LC147, 4(%esp)
	movl	$__ZSt4cout, (%esp)
	call	__ZStlsISt11char_traitsIcEERSt13basic_ostreamIcT_ES5_PKc
	movl	$__ZSt4endlIcSt11char_traitsIcEERSt13basic_ostreamIT_T0_ES6_, (%esp)
	movl	%eax, %ecx
	call	__ZNSolsEPFRSoS_E
	subl	$4, %esp
	movl	$LC148, 4(%esp)
	movl	$__ZSt4cout, (%esp)
	call	__ZStlsISt11char_traitsIcEERSt13basic_ostreamIcT_ES5_PKc
	movl	$__ZSt4endlIcSt11char_traitsIcEERSt13basic_ostreamIT_T0_ES6_, (%esp)
	movl	%eax, %ecx
	call	__ZNSolsEPFRSoS_E
	subl	$4, %esp
	movl	$LC149, 4(%esp)
	movl	$__ZSt4cout, (%esp)
	call	__ZStlsISt11char_traitsIcEERSt13basic_ostreamIcT_ES5_PKc
	movl	$__ZSt4endlIcSt11char_traitsIcEERSt13basic_ostreamIT_T0_ES6_, (%esp)
	movl	%eax, %ecx
	call	__ZNSolsEPFRSoS_E
	subl	$4, %esp
	movl	$LC150, 4(%esp)
	movl	$__ZSt4cout, (%esp)
	call	__ZStlsISt11char_traitsIcEERSt13basic_ostreamIcT_ES5_PKc
	movl	$__ZSt4endlIcSt11char_traitsIcEERSt13basic_ostreamIT_T0_ES6_, (%esp)
	movl	%eax, %ecx
	call	__ZNSolsEPFRSoS_E
	subl	$4, %esp
	movl	$LC151, 4(%esp)
	movl	$__ZSt4cout, (%esp)
	call	__ZStlsISt11char_traitsIcEERSt13basic_ostreamIcT_ES5_PKc
	movl	$__ZSt4endlIcSt11char_traitsIcEERSt13basic_ostreamIT_T0_ES6_, (%esp)
	movl	%eax, %ecx
	call	__ZNSolsEPFRSoS_E
	subl	$4, %esp
	movl	$LC152, 4(%esp)
	movl	$__ZSt4cout, (%esp)
	call	__ZStlsISt11char_traitsIcEERSt13basic_ostreamIcT_ES5_PKc
	movl	$__ZSt4endlIcSt11char_traitsIcEERSt13basic_ostreamIT_T0_ES6_, (%esp)
	movl	%eax, %ecx
	call	__ZNSolsEPFRSoS_E
	subl	$4, %esp
	movl	$LC153, 4(%esp)
	movl	$__ZSt4cout, (%esp)
	call	__ZStlsISt11char_traitsIcEERSt13basic_ostreamIcT_ES5_PKc
	movl	$__ZSt4endlIcSt11char_traitsIcEERSt13basic_ostreamIT_T0_ES6_, (%esp)
	movl	%eax, %ecx
	call	__ZNSolsEPFRSoS_E
	subl	$4, %esp
	movl	$LC154, 4(%esp)
	movl	$__ZSt4cout, (%esp)
	call	__ZStlsISt11char_traitsIcEERSt13basic_ostreamIcT_ES5_PKc
	movl	$__ZSt4endlIcSt11char_traitsIcEERSt13basic_ostreamIT_T0_ES6_, (%esp)
	movl	%eax, %ecx
	call	__ZNSolsEPFRSoS_E
	subl	$4, %esp
	movl	$LC155, 4(%esp)
	movl	$__ZSt4cout, (%esp)
	call	__ZStlsISt11char_traitsIcEERSt13basic_ostreamIcT_ES5_PKc
	movl	$__ZSt4endlIcSt11char_traitsIcEERSt13basic_ostreamIT_T0_ES6_, (%esp)
	movl	%eax, %ecx
	call	__ZNSolsEPFRSoS_E
	subl	$4, %esp
	movl	$LC156, 4(%esp)
	movl	$__ZSt4cout, (%esp)
	call	__ZStlsISt11char_traitsIcEERSt13basic_ostreamIcT_ES5_PKc
	movl	$__ZSt4endlIcSt11char_traitsIcEERSt13basic_ostreamIT_T0_ES6_, (%esp)
	movl	%eax, %ecx
	call	__ZNSolsEPFRSoS_E
	subl	$4, %esp
	movl	$LC157, 4(%esp)
	movl	$__ZSt4cout, (%esp)
	call	__ZStlsISt11char_traitsIcEERSt13basic_ostreamIcT_ES5_PKc
	movl	$__ZSt4endlIcSt11char_traitsIcEERSt13basic_ostreamIT_T0_ES6_, (%esp)
	movl	%eax, %ecx
	call	__ZNSolsEPFRSoS_E
	subl	$4, %esp
	movl	$LC158, 4(%esp)
	movl	$__ZSt4cout, (%esp)
	call	__ZStlsISt11char_traitsIcEERSt13basic_ostreamIcT_ES5_PKc
	movl	$__ZSt4endlIcSt11char_traitsIcEERSt13basic_ostreamIT_T0_ES6_, (%esp)
	movl	%eax, %ecx
	call	__ZNSolsEPFRSoS_E
	subl	$4, %esp
	movl	$LC159, 4(%esp)
	movl	$__ZSt4cout, (%esp)
	call	__ZStlsISt11char_traitsIcEERSt13basic_ostreamIcT_ES5_PKc
	movl	$__ZSt4endlIcSt11char_traitsIcEERSt13basic_ostreamIT_T0_ES6_, (%esp)
	movl	%eax, %ecx
	call	__ZNSolsEPFRSoS_E
	subl	$4, %esp
	movl	$LC160, 4(%esp)
	movl	$__ZSt4cout, (%esp)
	call	__ZStlsISt11char_traitsIcEERSt13basic_ostreamIcT_ES5_PKc
	movl	$__ZSt4endlIcSt11char_traitsIcEERSt13basic_ostreamIT_T0_ES6_, (%esp)
	movl	%eax, %ecx
	call	__ZNSolsEPFRSoS_E
	subl	$4, %esp
	movl	$LC161, 4(%esp)
	movl	$__ZSt4cout, (%esp)
	call	__ZStlsISt11char_traitsIcEERSt13basic_ostreamIcT_ES5_PKc
	movl	$__ZSt4endlIcSt11char_traitsIcEERSt13basic_ostreamIT_T0_ES6_, (%esp)
	movl	%eax, %ecx
	call	__ZNSolsEPFRSoS_E
	subl	$4, %esp
	movl	$LC25, 4(%esp)
	movl	$__ZSt4cout, (%esp)
	call	__ZStlsISt11char_traitsIcEERSt13basic_ostreamIcT_ES5_PKc
	movl	$__ZSt4endlIcSt11char_traitsIcEERSt13basic_ostreamIT_T0_ES6_, (%esp)
	movl	%eax, %ecx
	call	__ZNSolsEPFRSoS_E
	subl	$4, %esp
	movl	$LC3, (%esp)
	call	_system
	leave
	.cfi_restore 5
	.cfi_def_cfa 4, 4
	ret
	.cfi_endproc
LFE1303:
	.section .rdata,"dr"
	.align 4
LC162:
	.ascii "-                                    \326\306\327\367\327\351                                   -\0"
	.align 4
LC163:
	.ascii "-                                   MS Studio                                 -\0"
	.align 4
LC164:
	.ascii "-                                  \312\327\317\257\263\314\320\362\324\261                                 -\0"
	.align 4
LC165:
	.ascii "-                                 MS.YXH_XianYu                               -\0"
	.align 4
LC166:
	.ascii "-                                  \266\257\273\255\273\346\326\306\324\261                                 -\0"
	.align 4
LC167:
	.ascii "-                                     \327\334\274\340                                    -\0"
	.align 4
LC168:
	.ascii "-                                     \303\371\320\273                                    -\0"
	.align 4
LC169:
	.ascii "-                                 MS.DWTornier                                -\0"
	.align 4
LC170:
	.ascii "-                                  MS.BlueCat                                 -\0"
	.align 4
LC171:
	.ascii "-                                 MS.IceLocke                                 -\0"
	.align 4
LC172:
	.ascii "-                                MS.DrivenHank                                -\0"
	.align 4
LC173:
	.ascii "-                                      CC                                     -\0"
	.align 4
LC174:
	.ascii "-                    (\317\353\275\370\310\353\264\313\303\373\265\245\243\277AI\275\343\275\343\265\304QQ:2258488076)                    -\0"
LC175:
	.ascii "                        \0"
LC176:
	.ascii "**************\0"
LC177:
	.ascii "   \0"
LC178:
	.ascii "***************\0"
LC179:
	.ascii "-                       \0"
LC180:
	.ascii "***\0"
LC181:
	.ascii "                      \0"
LC182:
	.ascii "*******\0"
LC183:
	.ascii "                   \0"
LC184:
	.ascii "****\0"
LC185:
	.ascii "                 \0"
LC186:
	.ascii "          \0"
LC187:
	.ascii "         \0"
LC188:
	.ascii "        \0"
LC189:
	.ascii "***********\0"
LC190:
	.ascii "       \0"
LC191:
	.ascii "*************\0"
LC192:
	.ascii "      \0"
LC193:
	.ascii "  \0"
LC194:
	.ascii "********\0"
LC195:
	.ascii "    \0"
LC196:
	.ascii "-                      \0"
LC197:
	.ascii "**\0"
	.text
	.globl	__Z10Maker_Listv
	.def	__Z10Maker_Listv;	.scl	2;	.type	32;	.endef
__Z10Maker_Listv:
LFB1304:
	.cfi_startproc
	pushl	%ebp
	.cfi_def_cfa_offset 8
	.cfi_offset 5, -8
	movl	%esp, %ebp
	.cfi_def_cfa_register 5
	subl	$40, %esp
	movl	$LC6, (%esp)
	call	_system
	movl	$30, (%esp)
	call	__Z3endi
	movl	$LC162, 4(%esp)
	movl	$__ZSt4cout, (%esp)
	call	__ZStlsISt11char_traitsIcEERSt13basic_ostreamIcT_ES5_PKc
	movl	$__ZSt4endlIcSt11char_traitsIcEERSt13basic_ostreamIT_T0_ES6_, (%esp)
	movl	%eax, %ecx
	call	__ZNSolsEPFRSoS_E
	subl	$4, %esp
	movl	$250, (%esp)
	call	_Sleep@4
	subl	$4, %esp
	movl	$LC163, 4(%esp)
	movl	$__ZSt4cout, (%esp)
	call	__ZStlsISt11char_traitsIcEERSt13basic_ostreamIcT_ES5_PKc
	movl	$__ZSt4endlIcSt11char_traitsIcEERSt13basic_ostreamIT_T0_ES6_, (%esp)
	movl	%eax, %ecx
	call	__ZNSolsEPFRSoS_E
	subl	$4, %esp
	movl	$250, (%esp)
	call	_Sleep@4
	subl	$4, %esp
	movl	$1, (%esp)
	call	__Z3endi
	movl	$250, (%esp)
	call	_Sleep@4
	subl	$4, %esp
	movl	$LC164, 4(%esp)
	movl	$__ZSt4cout, (%esp)
	call	__ZStlsISt11char_traitsIcEERSt13basic_ostreamIcT_ES5_PKc
	movl	$__ZSt4endlIcSt11char_traitsIcEERSt13basic_ostreamIT_T0_ES6_, (%esp)
	movl	%eax, %ecx
	call	__ZNSolsEPFRSoS_E
	subl	$4, %esp
	movl	$250, (%esp)
	call	_Sleep@4
	subl	$4, %esp
	movl	$LC165, 4(%esp)
	movl	$__ZSt4cout, (%esp)
	call	__ZStlsISt11char_traitsIcEERSt13basic_ostreamIcT_ES5_PKc
	movl	$__ZSt4endlIcSt11char_traitsIcEERSt13basic_ostreamIT_T0_ES6_, (%esp)
	movl	%eax, %ecx
	call	__ZNSolsEPFRSoS_E
	subl	$4, %esp
	movl	$250, (%esp)
	call	_Sleep@4
	subl	$4, %esp
	movl	$1, (%esp)
	call	__Z3endi
	movl	$250, (%esp)
	call	_Sleep@4
	subl	$4, %esp
	movl	$LC166, 4(%esp)
	movl	$__ZSt4cout, (%esp)
	call	__ZStlsISt11char_traitsIcEERSt13basic_ostreamIcT_ES5_PKc
	movl	$__ZSt4endlIcSt11char_traitsIcEERSt13basic_ostreamIT_T0_ES6_, (%esp)
	movl	%eax, %ecx
	call	__ZNSolsEPFRSoS_E
	subl	$4, %esp
	movl	$250, (%esp)
	call	_Sleep@4
	subl	$4, %esp
	movl	$LC165, 4(%esp)
	movl	$__ZSt4cout, (%esp)
	call	__ZStlsISt11char_traitsIcEERSt13basic_ostreamIcT_ES5_PKc
	movl	$__ZSt4endlIcSt11char_traitsIcEERSt13basic_ostreamIT_T0_ES6_, (%esp)
	movl	%eax, %ecx
	call	__ZNSolsEPFRSoS_E
	subl	$4, %esp
	movl	$250, (%esp)
	call	_Sleep@4
	subl	$4, %esp
	movl	$1, (%esp)
	call	__Z3endi
	movl	$250, (%esp)
	call	_Sleep@4
	subl	$4, %esp
	movl	$LC167, 4(%esp)
	movl	$__ZSt4cout, (%esp)
	call	__ZStlsISt11char_traitsIcEERSt13basic_ostreamIcT_ES5_PKc
	movl	$__ZSt4endlIcSt11char_traitsIcEERSt13basic_ostreamIT_T0_ES6_, (%esp)
	movl	%eax, %ecx
	call	__ZNSolsEPFRSoS_E
	subl	$4, %esp
	movl	$250, (%esp)
	call	_Sleep@4
	subl	$4, %esp
	movl	$LC165, 4(%esp)
	movl	$__ZSt4cout, (%esp)
	call	__ZStlsISt11char_traitsIcEERSt13basic_ostreamIcT_ES5_PKc
	movl	$__ZSt4endlIcSt11char_traitsIcEERSt13basic_ostreamIT_T0_ES6_, (%esp)
	movl	%eax, %ecx
	call	__ZNSolsEPFRSoS_E
	subl	$4, %esp
	movl	$250, (%esp)
	call	_Sleep@4
	subl	$4, %esp
	movl	$1, (%esp)
	call	__Z3endi
	movl	$250, (%esp)
	call	_Sleep@4
	subl	$4, %esp
	movl	$LC168, 4(%esp)
	movl	$__ZSt4cout, (%esp)
	call	__ZStlsISt11char_traitsIcEERSt13basic_ostreamIcT_ES5_PKc
	movl	$__ZSt4endlIcSt11char_traitsIcEERSt13basic_ostreamIT_T0_ES6_, (%esp)
	movl	%eax, %ecx
	call	__ZNSolsEPFRSoS_E
	subl	$4, %esp
	movl	$250, (%esp)
	call	_Sleep@4
	subl	$4, %esp
	movl	$LC169, 4(%esp)
	movl	$__ZSt4cout, (%esp)
	call	__ZStlsISt11char_traitsIcEERSt13basic_ostreamIcT_ES5_PKc
	movl	$__ZSt4endlIcSt11char_traitsIcEERSt13basic_ostreamIT_T0_ES6_, (%esp)
	movl	%eax, %ecx
	call	__ZNSolsEPFRSoS_E
	subl	$4, %esp
	movl	$250, (%esp)
	call	_Sleep@4
	subl	$4, %esp
	movl	$LC170, 4(%esp)
	movl	$__ZSt4cout, (%esp)
	call	__ZStlsISt11char_traitsIcEERSt13basic_ostreamIcT_ES5_PKc
	movl	$__ZSt4endlIcSt11char_traitsIcEERSt13basic_ostreamIT_T0_ES6_, (%esp)
	movl	%eax, %ecx
	call	__ZNSolsEPFRSoS_E
	subl	$4, %esp
	movl	$250, (%esp)
	call	_Sleep@4
	subl	$4, %esp
	movl	$LC171, 4(%esp)
	movl	$__ZSt4cout, (%esp)
	call	__ZStlsISt11char_traitsIcEERSt13basic_ostreamIcT_ES5_PKc
	movl	$__ZSt4endlIcSt11char_traitsIcEERSt13basic_ostreamIT_T0_ES6_, (%esp)
	movl	%eax, %ecx
	call	__ZNSolsEPFRSoS_E
	subl	$4, %esp
	movl	$250, (%esp)
	call	_Sleep@4
	subl	$4, %esp
	movl	$LC172, 4(%esp)
	movl	$__ZSt4cout, (%esp)
	call	__ZStlsISt11char_traitsIcEERSt13basic_ostreamIcT_ES5_PKc
	movl	$__ZSt4endlIcSt11char_traitsIcEERSt13basic_ostreamIT_T0_ES6_, (%esp)
	movl	%eax, %ecx
	call	__ZNSolsEPFRSoS_E
	subl	$4, %esp
	movl	$250, (%esp)
	call	_Sleep@4
	subl	$4, %esp
	movl	$LC173, 4(%esp)
	movl	$__ZSt4cout, (%esp)
	call	__ZStlsISt11char_traitsIcEERSt13basic_ostreamIcT_ES5_PKc
	movl	$__ZSt4endlIcSt11char_traitsIcEERSt13basic_ostreamIT_T0_ES6_, (%esp)
	movl	%eax, %ecx
	call	__ZNSolsEPFRSoS_E
	subl	$4, %esp
	movl	$250, (%esp)
	call	_Sleep@4
	subl	$4, %esp
	movl	$LC174, 4(%esp)
	movl	$__ZSt4cout, (%esp)
	call	__ZStlsISt11char_traitsIcEERSt13basic_ostreamIcT_ES5_PKc
	movl	$__ZSt4endlIcSt11char_traitsIcEERSt13basic_ostreamIT_T0_ES6_, (%esp)
	movl	%eax, %ecx
	call	__ZNSolsEPFRSoS_E
	subl	$4, %esp
	movl	$250, (%esp)
	call	_Sleep@4
	subl	$4, %esp
	movl	$1, -12(%ebp)
	jmp	L163
L164:
	movl	$1, (%esp)
	call	__Z3endi
	movl	$250, (%esp)
	call	_Sleep@4
	subl	$4, %esp
	addl	$1, -12(%ebp)
L163:
	cmpl	$5, -12(%ebp)
	jle	L164
	movl	$__ZSt4endlIcSt11char_traitsIcEERSt13basic_ostreamIT_T0_ES6_, (%esp)
	movl	$__ZSt4cout, %ecx
	call	__ZNSolsEPFRSoS_E
	subl	$4, %esp
	movl	$250, (%esp)
	call	_Sleep@4
	subl	$4, %esp
	movl	$LC175, 4(%esp)
	movl	$__ZSt4cout, (%esp)
	call	__ZStlsISt11char_traitsIcEERSt13basic_ostreamIcT_ES5_PKc
	movl	$1, 4(%esp)
	movl	$1, (%esp)
	call	__Z9Color_Setii
	movl	$LC176, 4(%esp)
	movl	$__ZSt4cout, (%esp)
	call	__ZStlsISt11char_traitsIcEERSt13basic_ostreamIcT_ES5_PKc
	movl	$16, 4(%esp)
	movl	$16, (%esp)
	call	__Z9Color_Setii
	movl	$LC177, 4(%esp)
	movl	$__ZSt4cout, (%esp)
	call	__ZStlsISt11char_traitsIcEERSt13basic_ostreamIcT_ES5_PKc
	movl	$4, 4(%esp)
	movl	$4, (%esp)
	call	__Z9Color_Setii
	movl	$LC178, 4(%esp)
	movl	$__ZSt4cout, (%esp)
	call	__ZStlsISt11char_traitsIcEERSt13basic_ostreamIcT_ES5_PKc
	movl	$16, 4(%esp)
	movl	$16, (%esp)
	call	__Z9Color_Setii
	movl	$__ZSt4endlIcSt11char_traitsIcEERSt13basic_ostreamIT_T0_ES6_, (%esp)
	movl	$__ZSt4cout, %ecx
	call	__ZNSolsEPFRSoS_E
	subl	$4, %esp
	movl	$250, (%esp)
	call	_Sleep@4
	subl	$4, %esp
	movl	$LC179, 4(%esp)
	movl	$__ZSt4cout, (%esp)
	call	__ZStlsISt11char_traitsIcEERSt13basic_ostreamIcT_ES5_PKc
	movl	$1, 4(%esp)
	movl	$1, (%esp)
	call	__Z9Color_Setii
	movl	$LC176, 4(%esp)
	movl	$__ZSt4cout, (%esp)
	call	__ZStlsISt11char_traitsIcEERSt13basic_ostreamIcT_ES5_PKc
	movl	$16, 4(%esp)
	movl	$16, (%esp)
	call	__Z9Color_Setii
	movl	$LC177, 4(%esp)
	movl	$__ZSt4cout, (%esp)
	call	__ZStlsISt11char_traitsIcEERSt13basic_ostreamIcT_ES5_PKc
	movl	$4, 4(%esp)
	movl	$4, (%esp)
	call	__Z9Color_Setii
	movl	$LC178, 4(%esp)
	movl	$__ZSt4cout, (%esp)
	call	__ZStlsISt11char_traitsIcEERSt13basic_ostreamIcT_ES5_PKc
	movl	$16, 4(%esp)
	movl	$16, (%esp)
	call	__Z9Color_Setii
	movl	$__ZSt4endlIcSt11char_traitsIcEERSt13basic_ostreamIT_T0_ES6_, (%esp)
	movl	$__ZSt4cout, %ecx
	call	__ZNSolsEPFRSoS_E
	subl	$4, %esp
	movl	$250, (%esp)
	call	_Sleep@4
	subl	$4, %esp
	movl	$LC179, 4(%esp)
	movl	$__ZSt4cout, (%esp)
	call	__ZStlsISt11char_traitsIcEERSt13basic_ostreamIcT_ES5_PKc
	movl	$1, 4(%esp)
	movl	$1, (%esp)
	call	__Z9Color_Setii
	movl	$LC180, 4(%esp)
	movl	$__ZSt4cout, (%esp)
	call	__ZStlsISt11char_traitsIcEERSt13basic_ostreamIcT_ES5_PKc
	movl	$16, 4(%esp)
	movl	$16, (%esp)
	call	__Z9Color_Setii
	movl	$LC181, 4(%esp)
	movl	$__ZSt4cout, (%esp)
	call	__ZStlsISt11char_traitsIcEERSt13basic_ostreamIcT_ES5_PKc
	movl	$4, 4(%esp)
	movl	$4, (%esp)
	call	__Z9Color_Setii
	movl	$LC182, 4(%esp)
	movl	$__ZSt4cout, (%esp)
	call	__ZStlsISt11char_traitsIcEERSt13basic_ostreamIcT_ES5_PKc
	movl	$16, 4(%esp)
	movl	$16, (%esp)
	call	__Z9Color_Setii
	movl	$__ZSt4endlIcSt11char_traitsIcEERSt13basic_ostreamIT_T0_ES6_, (%esp)
	movl	$__ZSt4cout, %ecx
	call	__ZNSolsEPFRSoS_E
	subl	$4, %esp
	movl	$250, (%esp)
	call	_Sleep@4
	subl	$4, %esp
	movl	$LC179, 4(%esp)
	movl	$__ZSt4cout, (%esp)
	call	__ZStlsISt11char_traitsIcEERSt13basic_ostreamIcT_ES5_PKc
	movl	$1, 4(%esp)
	movl	$1, (%esp)
	call	__Z9Color_Setii
	movl	$LC180, 4(%esp)
	movl	$__ZSt4cout, (%esp)
	call	__ZStlsISt11char_traitsIcEERSt13basic_ostreamIcT_ES5_PKc
	movl	$16, 4(%esp)
	movl	$16, (%esp)
	call	__Z9Color_Setii
	movl	$LC183, 4(%esp)
	movl	$__ZSt4cout, (%esp)
	call	__ZStlsISt11char_traitsIcEERSt13basic_ostreamIcT_ES5_PKc
	movl	$4, 4(%esp)
	movl	$4, (%esp)
	call	__Z9Color_Setii
	movl	$LC184, 4(%esp)
	movl	$__ZSt4cout, (%esp)
	call	__ZStlsISt11char_traitsIcEERSt13basic_ostreamIcT_ES5_PKc
	movl	$16, 4(%esp)
	movl	$16, (%esp)
	call	__Z9Color_Setii
	movl	$LC177, 4(%esp)
	movl	$__ZSt4cout, (%esp)
	call	__ZStlsISt11char_traitsIcEERSt13basic_ostreamIcT_ES5_PKc
	movl	$4, 4(%esp)
	movl	$4, (%esp)
	call	__Z9Color_Setii
	movl	$LC180, 4(%esp)
	movl	$__ZSt4cout, (%esp)
	call	__ZStlsISt11char_traitsIcEERSt13basic_ostreamIcT_ES5_PKc
	movl	$16, 4(%esp)
	movl	$16, (%esp)
	call	__Z9Color_Setii
	movl	$__ZSt4endlIcSt11char_traitsIcEERSt13basic_ostreamIT_T0_ES6_, (%esp)
	movl	$__ZSt4cout, %ecx
	call	__ZNSolsEPFRSoS_E
	subl	$4, %esp
	movl	$250, (%esp)
	call	_Sleep@4
	subl	$4, %esp
	movl	$LC179, 4(%esp)
	movl	$__ZSt4cout, (%esp)
	call	__ZStlsISt11char_traitsIcEERSt13basic_ostreamIcT_ES5_PKc
	movl	$1, 4(%esp)
	movl	$1, (%esp)
	call	__Z9Color_Setii
	movl	$LC180, 4(%esp)
	movl	$__ZSt4cout, (%esp)
	call	__ZStlsISt11char_traitsIcEERSt13basic_ostreamIcT_ES5_PKc
	movl	$16, 4(%esp)
	movl	$16, (%esp)
	call	__Z9Color_Setii
	movl	$LC185, 4(%esp)
	movl	$__ZSt4cout, (%esp)
	call	__ZStlsISt11char_traitsIcEERSt13basic_ostreamIcT_ES5_PKc
	movl	$4, 4(%esp)
	movl	$4, (%esp)
	call	__Z9Color_Setii
	movl	$LC184, 4(%esp)
	movl	$__ZSt4cout, (%esp)
	call	__ZStlsISt11char_traitsIcEERSt13basic_ostreamIcT_ES5_PKc
	movl	$16, 4(%esp)
	movl	$16, (%esp)
	call	__Z9Color_Setii
	movl	$LC115, 4(%esp)
	movl	$__ZSt4cout, (%esp)
	call	__ZStlsISt11char_traitsIcEERSt13basic_ostreamIcT_ES5_PKc
	movl	$4, 4(%esp)
	movl	$4, (%esp)
	call	__Z9Color_Setii
	movl	$LC180, 4(%esp)
	movl	$__ZSt4cout, (%esp)
	call	__ZStlsISt11char_traitsIcEERSt13basic_ostreamIcT_ES5_PKc
	movl	$16, 4(%esp)
	movl	$16, (%esp)
	call	__Z9Color_Setii
	movl	$__ZSt4endlIcSt11char_traitsIcEERSt13basic_ostreamIT_T0_ES6_, (%esp)
	movl	$__ZSt4cout, %ecx
	call	__ZNSolsEPFRSoS_E
	subl	$4, %esp
	movl	$250, (%esp)
	call	_Sleep@4
	subl	$4, %esp
	movl	$LC179, 4(%esp)
	movl	$__ZSt4cout, (%esp)
	call	__ZStlsISt11char_traitsIcEERSt13basic_ostreamIcT_ES5_PKc
	movl	$1, 4(%esp)
	movl	$1, (%esp)
	call	__Z9Color_Setii
	movl	$LC180, 4(%esp)
	movl	$__ZSt4cout, (%esp)
	call	__ZStlsISt11char_traitsIcEERSt13basic_ostreamIcT_ES5_PKc
	movl	$16, 4(%esp)
	movl	$16, (%esp)
	call	__Z9Color_Setii
	movl	$LC186, 4(%esp)
	movl	$__ZSt4cout, (%esp)
	call	__ZStlsISt11char_traitsIcEERSt13basic_ostreamIcT_ES5_PKc
	movl	$4, 4(%esp)
	movl	$4, (%esp)
	call	__Z9Color_Setii
	movl	$LC182, 4(%esp)
	movl	$__ZSt4cout, (%esp)
	call	__ZStlsISt11char_traitsIcEERSt13basic_ostreamIcT_ES5_PKc
	movl	$16, 4(%esp)
	movl	$16, (%esp)
	call	__Z9Color_Setii
	movl	$LC187, 4(%esp)
	movl	$__ZSt4cout, (%esp)
	call	__ZStlsISt11char_traitsIcEERSt13basic_ostreamIcT_ES5_PKc
	movl	$4, 4(%esp)
	movl	$4, (%esp)
	call	__Z9Color_Setii
	movl	$LC180, 4(%esp)
	movl	$__ZSt4cout, (%esp)
	call	__ZStlsISt11char_traitsIcEERSt13basic_ostreamIcT_ES5_PKc
	movl	$16, 4(%esp)
	movl	$16, (%esp)
	call	__Z9Color_Setii
	movl	$__ZSt4endlIcSt11char_traitsIcEERSt13basic_ostreamIT_T0_ES6_, (%esp)
	movl	$__ZSt4cout, %ecx
	call	__ZNSolsEPFRSoS_E
	subl	$4, %esp
	movl	$250, (%esp)
	call	_Sleep@4
	subl	$4, %esp
	movl	$LC179, 4(%esp)
	movl	$__ZSt4cout, (%esp)
	call	__ZStlsISt11char_traitsIcEERSt13basic_ostreamIcT_ES5_PKc
	movl	$1, 4(%esp)
	movl	$1, (%esp)
	call	__Z9Color_Setii
	movl	$LC180, 4(%esp)
	movl	$__ZSt4cout, (%esp)
	call	__ZStlsISt11char_traitsIcEERSt13basic_ostreamIcT_ES5_PKc
	movl	$16, 4(%esp)
	movl	$16, (%esp)
	call	__Z9Color_Setii
	movl	$LC188, 4(%esp)
	movl	$__ZSt4cout, (%esp)
	call	__ZStlsISt11char_traitsIcEERSt13basic_ostreamIcT_ES5_PKc
	movl	$4, 4(%esp)
	movl	$4, (%esp)
	call	__Z9Color_Setii
	movl	$LC189, 4(%esp)
	movl	$__ZSt4cout, (%esp)
	call	__ZStlsISt11char_traitsIcEERSt13basic_ostreamIcT_ES5_PKc
	movl	$16, 4(%esp)
	movl	$16, (%esp)
	call	__Z9Color_Setii
	movl	$LC190, 4(%esp)
	movl	$__ZSt4cout, (%esp)
	call	__ZStlsISt11char_traitsIcEERSt13basic_ostreamIcT_ES5_PKc
	movl	$4, 4(%esp)
	movl	$4, (%esp)
	call	__Z9Color_Setii
	movl	$LC180, 4(%esp)
	movl	$__ZSt4cout, (%esp)
	call	__ZStlsISt11char_traitsIcEERSt13basic_ostreamIcT_ES5_PKc
	movl	$16, 4(%esp)
	movl	$16, (%esp)
	call	__Z9Color_Setii
	movl	$__ZSt4endlIcSt11char_traitsIcEERSt13basic_ostreamIT_T0_ES6_, (%esp)
	movl	$__ZSt4cout, %ecx
	call	__ZNSolsEPFRSoS_E
	subl	$4, %esp
	movl	$250, (%esp)
	call	_Sleep@4
	subl	$4, %esp
	movl	$LC179, 4(%esp)
	movl	$__ZSt4cout, (%esp)
	call	__ZStlsISt11char_traitsIcEERSt13basic_ostreamIcT_ES5_PKc
	movl	$1, 4(%esp)
	movl	$1, (%esp)
	call	__Z9Color_Setii
	movl	$LC180, 4(%esp)
	movl	$__ZSt4cout, (%esp)
	call	__ZStlsISt11char_traitsIcEERSt13basic_ostreamIcT_ES5_PKc
	movl	$16, 4(%esp)
	movl	$16, (%esp)
	call	__Z9Color_Setii
	movl	$LC190, 4(%esp)
	movl	$__ZSt4cout, (%esp)
	call	__ZStlsISt11char_traitsIcEERSt13basic_ostreamIcT_ES5_PKc
	movl	$4, 4(%esp)
	movl	$4, (%esp)
	call	__Z9Color_Setii
	movl	$LC191, 4(%esp)
	movl	$__ZSt4cout, (%esp)
	call	__ZStlsISt11char_traitsIcEERSt13basic_ostreamIcT_ES5_PKc
	movl	$16, 4(%esp)
	movl	$16, (%esp)
	call	__Z9Color_Setii
	movl	$LC192, 4(%esp)
	movl	$__ZSt4cout, (%esp)
	call	__ZStlsISt11char_traitsIcEERSt13basic_ostreamIcT_ES5_PKc
	movl	$4, 4(%esp)
	movl	$4, (%esp)
	call	__Z9Color_Setii
	movl	$LC180, 4(%esp)
	movl	$__ZSt4cout, (%esp)
	call	__ZStlsISt11char_traitsIcEERSt13basic_ostreamIcT_ES5_PKc
	movl	$16, 4(%esp)
	movl	$16, (%esp)
	call	__Z9Color_Setii
	movl	$__ZSt4endlIcSt11char_traitsIcEERSt13basic_ostreamIT_T0_ES6_, (%esp)
	movl	$__ZSt4cout, %ecx
	call	__ZNSolsEPFRSoS_E
	subl	$4, %esp
	movl	$250, (%esp)
	call	_Sleep@4
	subl	$4, %esp
	movl	$LC179, 4(%esp)
	movl	$__ZSt4cout, (%esp)
	call	__ZStlsISt11char_traitsIcEERSt13basic_ostreamIcT_ES5_PKc
	movl	$1, 4(%esp)
	movl	$1, (%esp)
	call	__Z9Color_Setii
	movl	$LC180, 4(%esp)
	movl	$__ZSt4cout, (%esp)
	call	__ZStlsISt11char_traitsIcEERSt13basic_ostreamIcT_ES5_PKc
	movl	$16, 4(%esp)
	movl	$16, (%esp)
	call	__Z9Color_Setii
	movl	$LC190, 4(%esp)
	movl	$__ZSt4cout, (%esp)
	call	__ZStlsISt11char_traitsIcEERSt13basic_ostreamIcT_ES5_PKc
	movl	$4, 4(%esp)
	movl	$4, (%esp)
	call	__Z9Color_Setii
	movl	$LC191, 4(%esp)
	movl	$__ZSt4cout, (%esp)
	call	__ZStlsISt11char_traitsIcEERSt13basic_ostreamIcT_ES5_PKc
	movl	$16, 4(%esp)
	movl	$16, (%esp)
	call	__Z9Color_Setii
	movl	$__ZSt4endlIcSt11char_traitsIcEERSt13basic_ostreamIT_T0_ES6_, (%esp)
	movl	$__ZSt4cout, %ecx
	call	__ZNSolsEPFRSoS_E
	subl	$4, %esp
	movl	$250, (%esp)
	call	_Sleep@4
	subl	$4, %esp
	movl	$LC179, 4(%esp)
	movl	$__ZSt4cout, (%esp)
	call	__ZStlsISt11char_traitsIcEERSt13basic_ostreamIcT_ES5_PKc
	movl	$1, 4(%esp)
	movl	$1, (%esp)
	call	__Z9Color_Setii
	movl	$LC180, 4(%esp)
	movl	$__ZSt4cout, (%esp)
	call	__ZStlsISt11char_traitsIcEERSt13basic_ostreamIcT_ES5_PKc
	movl	$16, 4(%esp)
	movl	$16, (%esp)
	call	__Z9Color_Setii
	movl	$LC188, 4(%esp)
	movl	$__ZSt4cout, (%esp)
	call	__ZStlsISt11char_traitsIcEERSt13basic_ostreamIcT_ES5_PKc
	movl	$4, 4(%esp)
	movl	$4, (%esp)
	call	__Z9Color_Setii
	movl	$LC189, 4(%esp)
	movl	$__ZSt4cout, (%esp)
	call	__ZStlsISt11char_traitsIcEERSt13basic_ostreamIcT_ES5_PKc
	movl	$16, 4(%esp)
	movl	$16, (%esp)
	call	__Z9Color_Setii
	movl	$LC193, 4(%esp)
	movl	$__ZSt4cout, (%esp)
	call	__ZStlsISt11char_traitsIcEERSt13basic_ostreamIcT_ES5_PKc
	movl	$13, 4(%esp)
	movl	$13, (%esp)
	call	__Z9Color_Setii
	movl	$LC194, 4(%esp)
	movl	$__ZSt4cout, (%esp)
	call	__ZStlsISt11char_traitsIcEERSt13basic_ostreamIcT_ES5_PKc
	movl	$16, 4(%esp)
	movl	$16, (%esp)
	call	__Z9Color_Setii
	movl	$__ZSt4endlIcSt11char_traitsIcEERSt13basic_ostreamIT_T0_ES6_, (%esp)
	movl	$__ZSt4cout, %ecx
	call	__ZNSolsEPFRSoS_E
	subl	$4, %esp
	movl	$250, (%esp)
	call	_Sleep@4
	subl	$4, %esp
	movl	$LC179, 4(%esp)
	movl	$__ZSt4cout, (%esp)
	call	__ZStlsISt11char_traitsIcEERSt13basic_ostreamIcT_ES5_PKc
	movl	$1, 4(%esp)
	movl	$1, (%esp)
	call	__Z9Color_Setii
	movl	$LC180, 4(%esp)
	movl	$__ZSt4cout, (%esp)
	call	__ZStlsISt11char_traitsIcEERSt13basic_ostreamIcT_ES5_PKc
	movl	$16, 4(%esp)
	movl	$16, (%esp)
	call	__Z9Color_Setii
	movl	$LC186, 4(%esp)
	movl	$__ZSt4cout, (%esp)
	call	__ZStlsISt11char_traitsIcEERSt13basic_ostreamIcT_ES5_PKc
	movl	$4, 4(%esp)
	movl	$4, (%esp)
	call	__Z9Color_Setii
	movl	$LC182, 4(%esp)
	movl	$__ZSt4cout, (%esp)
	call	__ZStlsISt11char_traitsIcEERSt13basic_ostreamIcT_ES5_PKc
	movl	$16, 4(%esp)
	movl	$16, (%esp)
	call	__Z9Color_Setii
	movl	$LC195, 4(%esp)
	movl	$__ZSt4cout, (%esp)
	call	__ZStlsISt11char_traitsIcEERSt13basic_ostreamIcT_ES5_PKc
	movl	$13, 4(%esp)
	movl	$13, (%esp)
	call	__Z9Color_Setii
	movl	$LC194, 4(%esp)
	movl	$__ZSt4cout, (%esp)
	call	__ZStlsISt11char_traitsIcEERSt13basic_ostreamIcT_ES5_PKc
	movl	$16, 4(%esp)
	movl	$16, (%esp)
	call	__Z9Color_Setii
	movl	$__ZSt4endlIcSt11char_traitsIcEERSt13basic_ostreamIT_T0_ES6_, (%esp)
	movl	$__ZSt4cout, %ecx
	call	__ZNSolsEPFRSoS_E
	subl	$4, %esp
	movl	$250, (%esp)
	call	_Sleep@4
	subl	$4, %esp
	movl	$1, -16(%ebp)
	jmp	L165
L166:
	movl	$1, (%esp)
	call	__Z3endi
	movl	$250, (%esp)
	call	_Sleep@4
	subl	$4, %esp
	addl	$1, -16(%ebp)
L165:
	cmpl	$3, -16(%ebp)
	jle	L166
	movl	$LC196, 4(%esp)
	movl	$__ZSt4cout, (%esp)
	call	__ZStlsISt11char_traitsIcEERSt13basic_ostreamIcT_ES5_PKc
	movl	$10, 4(%esp)
	movl	$10, (%esp)
	call	__Z9Color_Setii
	movl	$LC197, 4(%esp)
	movl	$__ZSt4cout, (%esp)
	call	__ZStlsISt11char_traitsIcEERSt13basic_ostreamIcT_ES5_PKc
	movl	$16, 4(%esp)
	movl	$16, (%esp)
	call	__Z9Color_Setii
	movl	$LC193, 4(%esp)
	movl	$__ZSt4cout, (%esp)
	call	__ZStlsISt11char_traitsIcEERSt13basic_ostreamIcT_ES5_PKc
	movl	$14, 4(%esp)
	movl	$14, (%esp)
	call	__Z9Color_Setii
	movl	$LC197, 4(%esp)
	movl	$__ZSt4cout, (%esp)
	call	__ZStlsISt11char_traitsIcEERSt13basic_ostreamIcT_ES5_PKc
	movl	$16, 4(%esp)
	movl	$16, (%esp)
	call	__Z9Color_Setii
	movl	$LC193, 4(%esp)
	movl	$__ZSt4cout, (%esp)
	call	__ZStlsISt11char_traitsIcEERSt13basic_ostreamIcT_ES5_PKc
	movl	$15, 4(%esp)
	movl	$15, (%esp)
	call	__Z9Color_Setii
	movl	$LC197, 4(%esp)
	movl	$__ZSt4cout, (%esp)
	call	__ZStlsISt11char_traitsIcEERSt13basic_ostreamIcT_ES5_PKc
	movl	$16, 4(%esp)
	movl	$16, (%esp)
	call	__Z9Color_Setii
	movl	$LC193, 4(%esp)
	movl	$__ZSt4cout, (%esp)
	call	__ZStlsISt11char_traitsIcEERSt13basic_ostreamIcT_ES5_PKc
	movl	$1, 4(%esp)
	movl	$1, (%esp)
	call	__Z9Color_Setii
	movl	$LC197, 4(%esp)
	movl	$__ZSt4cout, (%esp)
	call	__ZStlsISt11char_traitsIcEERSt13basic_ostreamIcT_ES5_PKc
	movl	$16, 4(%esp)
	movl	$16, (%esp)
	call	__Z9Color_Setii
	movl	$__ZSt4endlIcSt11char_traitsIcEERSt13basic_ostreamIT_T0_ES6_, (%esp)
	movl	$__ZSt4cout, %ecx
	call	__ZNSolsEPFRSoS_E
	subl	$4, %esp
	movl	$250, (%esp)
	call	_Sleep@4
	subl	$4, %esp
	movl	$1, -20(%ebp)
	jmp	L167
L168:
	movl	$1, (%esp)
	call	__Z3endi
	movl	$250, (%esp)
	call	_Sleep@4
	subl	$4, %esp
	addl	$1, -20(%ebp)
L167:
	cmpl	$4, -20(%ebp)
	jle	L168
	movl	$2500, (%esp)
	call	_Sleep@4
	subl	$4, %esp
	movl	$LC3, (%esp)
	call	_system
	movl	$LC0, (%esp)
	call	_system
	leave
	.cfi_restore 5
	.cfi_def_cfa 4, 4
	ret
	.cfi_endproc
LFE1304:
	.section .rdata,"dr"
	.align 4
LC198:
	.ascii "-    *****   *   *    *     *   *  *   *  *****       *****  *****  *****     -\0"
	.align 4
LC199:
	.ascii "-      *     *   *   * *    **  *  *  *   *           *      *   *  *   *     -\0"
	.align 4
LC200:
	.ascii "-      *     *****  *****   * * *  ***    *****       ***    *   *  *****     -\0"
	.align 4
LC201:
	.ascii "-      *     *   *  *   *   *  **  *  *       *       *      *   *  *  *      -\0"
	.align 4
LC202:
	.ascii "-      *     *   *  *   *   *   *  *   *  *****       *      *****  *   *     -\0"
	.align 4
LC203:
	.ascii "-              *****  *        *    *   *  *****   *   *  *****               -\0"
	.align 4
LC204:
	.ascii "-              *   *  *       * *    * *     *     **  *  *                   -\0"
	.align 4
LC205:
	.ascii "-              *****  *      *****    *      *     * * *  *  **               -\0"
	.align 4
LC206:
	.ascii "-              *      *      *   *    *      *     *  **  *   *               -\0"
	.align 4
LC207:
	.ascii "-              *      *****  *   *    *    *****   *   *  *****               -\0"
	.align 4
LC208:
	.ascii "-                                \271\247\317\262\304\372 \315\250\271\330\323\316\317\267                              -\0"
	.align 4
LC209:
	.ascii "-                   \301\355\315\342 \270\320\320\273\304\372\273\250\267\321\304\372\325\344\271\363\265\304\312\261\274\344\315\250\271\330\261\311\310\313\265\304\323\316\317\267                 -\0"
	.align 4
LC210:
	.ascii "-          \260\321\264\313\263\241\276\260\275\330\315\274\317\302\300\264 \267\242\313\315\326\301\316\322\265\304QQ \277\311\322\324\273\361\265\303\320\241\275\261\306\267\305\266 \243\250\310\347\271\373\323\320\265\304\273\260\243\251      -\0"
	.align 4
LC211:
	.ascii "-                       (\317\353\275\370\310\353\264\313\303\373\265\245\243\277\325\346\325\375\244\316QQ:2943003)                      -\0"
	.align 4
LC212:
	.ascii " \326\306\327\367\261\263\276\260:\316\322\303\307\324\332\270\243\310\375\326\320\311\317\274\306\313\343\273\372\317\304\301\356\323\252\260\242,\310\273\272\363\264\363\274\322\276\315\322\273\306\360\277\252\312\274\327\366\323\316\317\267,\263\264\274\246\277\252\320\304.\0"
	.align 4
LC213:
	.ascii "          \306\344\312\265\325\342\270\366\323\316\317\267\272\334\266\340\306\332\315\373\266\274\303\273\323\320\327\366\315\352\260\241,\312\261\274\344\301\367\312\305\265\304\314\253\277\354\301\313orz.\0"
	.align 4
LC214:
	.ascii "          \310\347\271\373\322\324\272\363\264\323\312\302\326\306\327\367\323\316\317\267\265\304\271\244\327\367,\317\243\315\373\304\334\261\243\263\326\263\365\320\304,\326\306\327\367\322\273\277\356\310\303\327\324\274\272\277\354\300\326\265\304\323\316\317\267.\0"
	.align 4
LC215:
	.ascii " \326\306\327\367\312\261\274\344:2017.8.3-2017.8.14 [Alpha\305\266]              by.MS.YXH 2017.8.14.11.20\0"
	.text
	.globl	__Z15Pass_Game_Happyv
	.def	__Z15Pass_Game_Happyv;	.scl	2;	.type	32;	.endef
__Z15Pass_Game_Happyv:
LFB1305:
	.cfi_startproc
	pushl	%ebp
	.cfi_def_cfa_offset 8
	.cfi_offset 5, -8
	movl	%esp, %ebp
	.cfi_def_cfa_register 5
	subl	$40, %esp
	movl	$LC2, (%esp)
	call	_system
	movl	$LC6, (%esp)
	call	_system
	movl	$LC25, 4(%esp)
	movl	$__ZSt4cout, (%esp)
	call	__ZStlsISt11char_traitsIcEERSt13basic_ostreamIcT_ES5_PKc
	movl	$__ZSt4endlIcSt11char_traitsIcEERSt13basic_ostreamIT_T0_ES6_, (%esp)
	movl	%eax, %ecx
	call	__ZNSolsEPFRSoS_E
	subl	$4, %esp
	movl	$LC26, 4(%esp)
	movl	$__ZSt4cout, (%esp)
	call	__ZStlsISt11char_traitsIcEERSt13basic_ostreamIcT_ES5_PKc
	movl	$__ZSt4endlIcSt11char_traitsIcEERSt13basic_ostreamIT_T0_ES6_, (%esp)
	movl	%eax, %ecx
	call	__ZNSolsEPFRSoS_E
	subl	$4, %esp
	movl	$LC198, 4(%esp)
	movl	$__ZSt4cout, (%esp)
	call	__ZStlsISt11char_traitsIcEERSt13basic_ostreamIcT_ES5_PKc
	movl	$__ZSt4endlIcSt11char_traitsIcEERSt13basic_ostreamIT_T0_ES6_, (%esp)
	movl	%eax, %ecx
	call	__ZNSolsEPFRSoS_E
	subl	$4, %esp
	movl	$LC199, 4(%esp)
	movl	$__ZSt4cout, (%esp)
	call	__ZStlsISt11char_traitsIcEERSt13basic_ostreamIcT_ES5_PKc
	movl	$__ZSt4endlIcSt11char_traitsIcEERSt13basic_ostreamIT_T0_ES6_, (%esp)
	movl	%eax, %ecx
	call	__ZNSolsEPFRSoS_E
	subl	$4, %esp
	movl	$LC200, 4(%esp)
	movl	$__ZSt4cout, (%esp)
	call	__ZStlsISt11char_traitsIcEERSt13basic_ostreamIcT_ES5_PKc
	movl	$__ZSt4endlIcSt11char_traitsIcEERSt13basic_ostreamIT_T0_ES6_, (%esp)
	movl	%eax, %ecx
	call	__ZNSolsEPFRSoS_E
	subl	$4, %esp
	movl	$LC201, 4(%esp)
	movl	$__ZSt4cout, (%esp)
	call	__ZStlsISt11char_traitsIcEERSt13basic_ostreamIcT_ES5_PKc
	movl	$__ZSt4endlIcSt11char_traitsIcEERSt13basic_ostreamIT_T0_ES6_, (%esp)
	movl	%eax, %ecx
	call	__ZNSolsEPFRSoS_E
	subl	$4, %esp
	movl	$LC202, 4(%esp)
	movl	$__ZSt4cout, (%esp)
	call	__ZStlsISt11char_traitsIcEERSt13basic_ostreamIcT_ES5_PKc
	movl	$__ZSt4endlIcSt11char_traitsIcEERSt13basic_ostreamIT_T0_ES6_, (%esp)
	movl	%eax, %ecx
	call	__ZNSolsEPFRSoS_E
	subl	$4, %esp
	movl	$LC26, 4(%esp)
	movl	$__ZSt4cout, (%esp)
	call	__ZStlsISt11char_traitsIcEERSt13basic_ostreamIcT_ES5_PKc
	movl	$__ZSt4endlIcSt11char_traitsIcEERSt13basic_ostreamIT_T0_ES6_, (%esp)
	movl	%eax, %ecx
	call	__ZNSolsEPFRSoS_E
	subl	$4, %esp
	movl	$LC26, 4(%esp)
	movl	$__ZSt4cout, (%esp)
	call	__ZStlsISt11char_traitsIcEERSt13basic_ostreamIcT_ES5_PKc
	movl	$__ZSt4endlIcSt11char_traitsIcEERSt13basic_ostreamIT_T0_ES6_, (%esp)
	movl	%eax, %ecx
	call	__ZNSolsEPFRSoS_E
	subl	$4, %esp
	movl	$LC26, 4(%esp)
	movl	$__ZSt4cout, (%esp)
	call	__ZStlsISt11char_traitsIcEERSt13basic_ostreamIcT_ES5_PKc
	movl	$__ZSt4endlIcSt11char_traitsIcEERSt13basic_ostreamIT_T0_ES6_, (%esp)
	movl	%eax, %ecx
	call	__ZNSolsEPFRSoS_E
	subl	$4, %esp
	movl	$LC203, 4(%esp)
	movl	$__ZSt4cout, (%esp)
	call	__ZStlsISt11char_traitsIcEERSt13basic_ostreamIcT_ES5_PKc
	movl	$__ZSt4endlIcSt11char_traitsIcEERSt13basic_ostreamIT_T0_ES6_, (%esp)
	movl	%eax, %ecx
	call	__ZNSolsEPFRSoS_E
	subl	$4, %esp
	movl	$LC204, 4(%esp)
	movl	$__ZSt4cout, (%esp)
	call	__ZStlsISt11char_traitsIcEERSt13basic_ostreamIcT_ES5_PKc
	movl	$__ZSt4endlIcSt11char_traitsIcEERSt13basic_ostreamIT_T0_ES6_, (%esp)
	movl	%eax, %ecx
	call	__ZNSolsEPFRSoS_E
	subl	$4, %esp
	movl	$LC205, 4(%esp)
	movl	$__ZSt4cout, (%esp)
	call	__ZStlsISt11char_traitsIcEERSt13basic_ostreamIcT_ES5_PKc
	movl	$__ZSt4endlIcSt11char_traitsIcEERSt13basic_ostreamIT_T0_ES6_, (%esp)
	movl	%eax, %ecx
	call	__ZNSolsEPFRSoS_E
	subl	$4, %esp
	movl	$LC206, 4(%esp)
	movl	$__ZSt4cout, (%esp)
	call	__ZStlsISt11char_traitsIcEERSt13basic_ostreamIcT_ES5_PKc
	movl	$__ZSt4endlIcSt11char_traitsIcEERSt13basic_ostreamIT_T0_ES6_, (%esp)
	movl	%eax, %ecx
	call	__ZNSolsEPFRSoS_E
	subl	$4, %esp
	movl	$LC207, 4(%esp)
	movl	$__ZSt4cout, (%esp)
	call	__ZStlsISt11char_traitsIcEERSt13basic_ostreamIcT_ES5_PKc
	movl	$__ZSt4endlIcSt11char_traitsIcEERSt13basic_ostreamIT_T0_ES6_, (%esp)
	movl	%eax, %ecx
	call	__ZNSolsEPFRSoS_E
	subl	$4, %esp
	movl	$LC26, 4(%esp)
	movl	$__ZSt4cout, (%esp)
	call	__ZStlsISt11char_traitsIcEERSt13basic_ostreamIcT_ES5_PKc
	movl	$__ZSt4endlIcSt11char_traitsIcEERSt13basic_ostreamIT_T0_ES6_, (%esp)
	movl	%eax, %ecx
	call	__ZNSolsEPFRSoS_E
	subl	$4, %esp
	movl	$LC26, 4(%esp)
	movl	$__ZSt4cout, (%esp)
	call	__ZStlsISt11char_traitsIcEERSt13basic_ostreamIcT_ES5_PKc
	movl	$__ZSt4endlIcSt11char_traitsIcEERSt13basic_ostreamIT_T0_ES6_, (%esp)
	movl	%eax, %ecx
	call	__ZNSolsEPFRSoS_E
	subl	$4, %esp
	movl	$LC208, 4(%esp)
	movl	$__ZSt4cout, (%esp)
	call	__ZStlsISt11char_traitsIcEERSt13basic_ostreamIcT_ES5_PKc
	movl	$__ZSt4endlIcSt11char_traitsIcEERSt13basic_ostreamIT_T0_ES6_, (%esp)
	movl	%eax, %ecx
	call	__ZNSolsEPFRSoS_E
	subl	$4, %esp
	movl	$LC209, 4(%esp)
	movl	$__ZSt4cout, (%esp)
	call	__ZStlsISt11char_traitsIcEERSt13basic_ostreamIcT_ES5_PKc
	movl	$__ZSt4endlIcSt11char_traitsIcEERSt13basic_ostreamIT_T0_ES6_, (%esp)
	movl	%eax, %ecx
	call	__ZNSolsEPFRSoS_E
	subl	$4, %esp
	movl	$LC26, 4(%esp)
	movl	$__ZSt4cout, (%esp)
	call	__ZStlsISt11char_traitsIcEERSt13basic_ostreamIcT_ES5_PKc
	movl	$__ZSt4endlIcSt11char_traitsIcEERSt13basic_ostreamIT_T0_ES6_, (%esp)
	movl	%eax, %ecx
	call	__ZNSolsEPFRSoS_E
	subl	$4, %esp
	movl	$LC210, 4(%esp)
	movl	$__ZSt4cout, (%esp)
	call	__ZStlsISt11char_traitsIcEERSt13basic_ostreamIcT_ES5_PKc
	movl	$__ZSt4endlIcSt11char_traitsIcEERSt13basic_ostreamIT_T0_ES6_, (%esp)
	movl	%eax, %ecx
	call	__ZNSolsEPFRSoS_E
	subl	$4, %esp
	movl	$LC26, 4(%esp)
	movl	$__ZSt4cout, (%esp)
	call	__ZStlsISt11char_traitsIcEERSt13basic_ostreamIcT_ES5_PKc
	movl	$__ZSt4endlIcSt11char_traitsIcEERSt13basic_ostreamIT_T0_ES6_, (%esp)
	movl	%eax, %ecx
	call	__ZNSolsEPFRSoS_E
	subl	$4, %esp
	movl	$LC25, 4(%esp)
	movl	$__ZSt4cout, (%esp)
	call	__ZStlsISt11char_traitsIcEERSt13basic_ostreamIcT_ES5_PKc
	movl	$__ZSt4endlIcSt11char_traitsIcEERSt13basic_ostreamIT_T0_ES6_, (%esp)
	movl	%eax, %ecx
	call	__ZNSolsEPFRSoS_E
	subl	$4, %esp
	movl	$LC3, (%esp)
	call	_system
	movl	$LC6, (%esp)
	call	_system
	movl	$30, (%esp)
	call	__Z3endi
	movl	$LC162, 4(%esp)
	movl	$__ZSt4cout, (%esp)
	call	__ZStlsISt11char_traitsIcEERSt13basic_ostreamIcT_ES5_PKc
	movl	$__ZSt4endlIcSt11char_traitsIcEERSt13basic_ostreamIT_T0_ES6_, (%esp)
	movl	%eax, %ecx
	call	__ZNSolsEPFRSoS_E
	subl	$4, %esp
	movl	$250, (%esp)
	call	_Sleep@4
	subl	$4, %esp
	movl	$LC163, 4(%esp)
	movl	$__ZSt4cout, (%esp)
	call	__ZStlsISt11char_traitsIcEERSt13basic_ostreamIcT_ES5_PKc
	movl	$__ZSt4endlIcSt11char_traitsIcEERSt13basic_ostreamIT_T0_ES6_, (%esp)
	movl	%eax, %ecx
	call	__ZNSolsEPFRSoS_E
	subl	$4, %esp
	movl	$250, (%esp)
	call	_Sleep@4
	subl	$4, %esp
	movl	$1, (%esp)
	call	__Z3endi
	movl	$250, (%esp)
	call	_Sleep@4
	subl	$4, %esp
	movl	$LC164, 4(%esp)
	movl	$__ZSt4cout, (%esp)
	call	__ZStlsISt11char_traitsIcEERSt13basic_ostreamIcT_ES5_PKc
	movl	$__ZSt4endlIcSt11char_traitsIcEERSt13basic_ostreamIT_T0_ES6_, (%esp)
	movl	%eax, %ecx
	call	__ZNSolsEPFRSoS_E
	subl	$4, %esp
	movl	$250, (%esp)
	call	_Sleep@4
	subl	$4, %esp
	movl	$LC165, 4(%esp)
	movl	$__ZSt4cout, (%esp)
	call	__ZStlsISt11char_traitsIcEERSt13basic_ostreamIcT_ES5_PKc
	movl	$__ZSt4endlIcSt11char_traitsIcEERSt13basic_ostreamIT_T0_ES6_, (%esp)
	movl	%eax, %ecx
	call	__ZNSolsEPFRSoS_E
	subl	$4, %esp
	movl	$250, (%esp)
	call	_Sleep@4
	subl	$4, %esp
	movl	$1, (%esp)
	call	__Z3endi
	movl	$250, (%esp)
	call	_Sleep@4
	subl	$4, %esp
	movl	$LC166, 4(%esp)
	movl	$__ZSt4cout, (%esp)
	call	__ZStlsISt11char_traitsIcEERSt13basic_ostreamIcT_ES5_PKc
	movl	$__ZSt4endlIcSt11char_traitsIcEERSt13basic_ostreamIT_T0_ES6_, (%esp)
	movl	%eax, %ecx
	call	__ZNSolsEPFRSoS_E
	subl	$4, %esp
	movl	$250, (%esp)
	call	_Sleep@4
	subl	$4, %esp
	movl	$LC165, 4(%esp)
	movl	$__ZSt4cout, (%esp)
	call	__ZStlsISt11char_traitsIcEERSt13basic_ostreamIcT_ES5_PKc
	movl	$__ZSt4endlIcSt11char_traitsIcEERSt13basic_ostreamIT_T0_ES6_, (%esp)
	movl	%eax, %ecx
	call	__ZNSolsEPFRSoS_E
	subl	$4, %esp
	movl	$250, (%esp)
	call	_Sleep@4
	subl	$4, %esp
	movl	$1, (%esp)
	call	__Z3endi
	movl	$250, (%esp)
	call	_Sleep@4
	subl	$4, %esp
	movl	$LC167, 4(%esp)
	movl	$__ZSt4cout, (%esp)
	call	__ZStlsISt11char_traitsIcEERSt13basic_ostreamIcT_ES5_PKc
	movl	$__ZSt4endlIcSt11char_traitsIcEERSt13basic_ostreamIT_T0_ES6_, (%esp)
	movl	%eax, %ecx
	call	__ZNSolsEPFRSoS_E
	subl	$4, %esp
	movl	$250, (%esp)
	call	_Sleep@4
	subl	$4, %esp
	movl	$LC165, 4(%esp)
	movl	$__ZSt4cout, (%esp)
	call	__ZStlsISt11char_traitsIcEERSt13basic_ostreamIcT_ES5_PKc
	movl	$__ZSt4endlIcSt11char_traitsIcEERSt13basic_ostreamIT_T0_ES6_, (%esp)
	movl	%eax, %ecx
	call	__ZNSolsEPFRSoS_E
	subl	$4, %esp
	movl	$250, (%esp)
	call	_Sleep@4
	subl	$4, %esp
	movl	$1, (%esp)
	call	__Z3endi
	movl	$250, (%esp)
	call	_Sleep@4
	subl	$4, %esp
	movl	$LC168, 4(%esp)
	movl	$__ZSt4cout, (%esp)
	call	__ZStlsISt11char_traitsIcEERSt13basic_ostreamIcT_ES5_PKc
	movl	$__ZSt4endlIcSt11char_traitsIcEERSt13basic_ostreamIT_T0_ES6_, (%esp)
	movl	%eax, %ecx
	call	__ZNSolsEPFRSoS_E
	subl	$4, %esp
	movl	$250, (%esp)
	call	_Sleep@4
	subl	$4, %esp
	movl	$LC169, 4(%esp)
	movl	$__ZSt4cout, (%esp)
	call	__ZStlsISt11char_traitsIcEERSt13basic_ostreamIcT_ES5_PKc
	movl	$__ZSt4endlIcSt11char_traitsIcEERSt13basic_ostreamIT_T0_ES6_, (%esp)
	movl	%eax, %ecx
	call	__ZNSolsEPFRSoS_E
	subl	$4, %esp
	movl	$250, (%esp)
	call	_Sleep@4
	subl	$4, %esp
	movl	$LC170, 4(%esp)
	movl	$__ZSt4cout, (%esp)
	call	__ZStlsISt11char_traitsIcEERSt13basic_ostreamIcT_ES5_PKc
	movl	$__ZSt4endlIcSt11char_traitsIcEERSt13basic_ostreamIT_T0_ES6_, (%esp)
	movl	%eax, %ecx
	call	__ZNSolsEPFRSoS_E
	subl	$4, %esp
	movl	$250, (%esp)
	call	_Sleep@4
	subl	$4, %esp
	movl	$LC171, 4(%esp)
	movl	$__ZSt4cout, (%esp)
	call	__ZStlsISt11char_traitsIcEERSt13basic_ostreamIcT_ES5_PKc
	movl	$__ZSt4endlIcSt11char_traitsIcEERSt13basic_ostreamIT_T0_ES6_, (%esp)
	movl	%eax, %ecx
	call	__ZNSolsEPFRSoS_E
	subl	$4, %esp
	movl	$250, (%esp)
	call	_Sleep@4
	subl	$4, %esp
	movl	$LC172, 4(%esp)
	movl	$__ZSt4cout, (%esp)
	call	__ZStlsISt11char_traitsIcEERSt13basic_ostreamIcT_ES5_PKc
	movl	$__ZSt4endlIcSt11char_traitsIcEERSt13basic_ostreamIT_T0_ES6_, (%esp)
	movl	%eax, %ecx
	call	__ZNSolsEPFRSoS_E
	subl	$4, %esp
	movl	$250, (%esp)
	call	_Sleep@4
	subl	$4, %esp
	movl	$LC173, 4(%esp)
	movl	$__ZSt4cout, (%esp)
	call	__ZStlsISt11char_traitsIcEERSt13basic_ostreamIcT_ES5_PKc
	movl	$__ZSt4endlIcSt11char_traitsIcEERSt13basic_ostreamIT_T0_ES6_, (%esp)
	movl	%eax, %ecx
	call	__ZNSolsEPFRSoS_E
	subl	$4, %esp
	movl	$250, (%esp)
	call	_Sleep@4
	subl	$4, %esp
	movl	$LC211, 4(%esp)
	movl	$__ZSt4cout, (%esp)
	call	__ZStlsISt11char_traitsIcEERSt13basic_ostreamIcT_ES5_PKc
	movl	$__ZSt4endlIcSt11char_traitsIcEERSt13basic_ostreamIT_T0_ES6_, (%esp)
	movl	%eax, %ecx
	call	__ZNSolsEPFRSoS_E
	subl	$4, %esp
	movl	$250, (%esp)
	call	_Sleep@4
	subl	$4, %esp
	movl	$1, -12(%ebp)
	jmp	L170
L171:
	movl	$1, (%esp)
	call	__Z3endi
	movl	$250, (%esp)
	call	_Sleep@4
	subl	$4, %esp
	addl	$1, -12(%ebp)
L170:
	cmpl	$5, -12(%ebp)
	jle	L171
	movl	$__ZSt4endlIcSt11char_traitsIcEERSt13basic_ostreamIT_T0_ES6_, (%esp)
	movl	$__ZSt4cout, %ecx
	call	__ZNSolsEPFRSoS_E
	subl	$4, %esp
	movl	$250, (%esp)
	call	_Sleep@4
	subl	$4, %esp
	movl	$LC175, 4(%esp)
	movl	$__ZSt4cout, (%esp)
	call	__ZStlsISt11char_traitsIcEERSt13basic_ostreamIcT_ES5_PKc
	movl	$1, 4(%esp)
	movl	$1, (%esp)
	call	__Z9Color_Setii
	movl	$LC176, 4(%esp)
	movl	$__ZSt4cout, (%esp)
	call	__ZStlsISt11char_traitsIcEERSt13basic_ostreamIcT_ES5_PKc
	movl	$16, 4(%esp)
	movl	$16, (%esp)
	call	__Z9Color_Setii
	movl	$LC177, 4(%esp)
	movl	$__ZSt4cout, (%esp)
	call	__ZStlsISt11char_traitsIcEERSt13basic_ostreamIcT_ES5_PKc
	movl	$4, 4(%esp)
	movl	$4, (%esp)
	call	__Z9Color_Setii
	movl	$LC178, 4(%esp)
	movl	$__ZSt4cout, (%esp)
	call	__ZStlsISt11char_traitsIcEERSt13basic_ostreamIcT_ES5_PKc
	movl	$16, 4(%esp)
	movl	$16, (%esp)
	call	__Z9Color_Setii
	movl	$__ZSt4endlIcSt11char_traitsIcEERSt13basic_ostreamIT_T0_ES6_, (%esp)
	movl	$__ZSt4cout, %ecx
	call	__ZNSolsEPFRSoS_E
	subl	$4, %esp
	movl	$250, (%esp)
	call	_Sleep@4
	subl	$4, %esp
	movl	$LC179, 4(%esp)
	movl	$__ZSt4cout, (%esp)
	call	__ZStlsISt11char_traitsIcEERSt13basic_ostreamIcT_ES5_PKc
	movl	$1, 4(%esp)
	movl	$1, (%esp)
	call	__Z9Color_Setii
	movl	$LC176, 4(%esp)
	movl	$__ZSt4cout, (%esp)
	call	__ZStlsISt11char_traitsIcEERSt13basic_ostreamIcT_ES5_PKc
	movl	$16, 4(%esp)
	movl	$16, (%esp)
	call	__Z9Color_Setii
	movl	$LC177, 4(%esp)
	movl	$__ZSt4cout, (%esp)
	call	__ZStlsISt11char_traitsIcEERSt13basic_ostreamIcT_ES5_PKc
	movl	$4, 4(%esp)
	movl	$4, (%esp)
	call	__Z9Color_Setii
	movl	$LC178, 4(%esp)
	movl	$__ZSt4cout, (%esp)
	call	__ZStlsISt11char_traitsIcEERSt13basic_ostreamIcT_ES5_PKc
	movl	$16, 4(%esp)
	movl	$16, (%esp)
	call	__Z9Color_Setii
	movl	$__ZSt4endlIcSt11char_traitsIcEERSt13basic_ostreamIT_T0_ES6_, (%esp)
	movl	$__ZSt4cout, %ecx
	call	__ZNSolsEPFRSoS_E
	subl	$4, %esp
	movl	$250, (%esp)
	call	_Sleep@4
	subl	$4, %esp
	movl	$LC179, 4(%esp)
	movl	$__ZSt4cout, (%esp)
	call	__ZStlsISt11char_traitsIcEERSt13basic_ostreamIcT_ES5_PKc
	movl	$1, 4(%esp)
	movl	$1, (%esp)
	call	__Z9Color_Setii
	movl	$LC180, 4(%esp)
	movl	$__ZSt4cout, (%esp)
	call	__ZStlsISt11char_traitsIcEERSt13basic_ostreamIcT_ES5_PKc
	movl	$16, 4(%esp)
	movl	$16, (%esp)
	call	__Z9Color_Setii
	movl	$LC181, 4(%esp)
	movl	$__ZSt4cout, (%esp)
	call	__ZStlsISt11char_traitsIcEERSt13basic_ostreamIcT_ES5_PKc
	movl	$4, 4(%esp)
	movl	$4, (%esp)
	call	__Z9Color_Setii
	movl	$LC182, 4(%esp)
	movl	$__ZSt4cout, (%esp)
	call	__ZStlsISt11char_traitsIcEERSt13basic_ostreamIcT_ES5_PKc
	movl	$16, 4(%esp)
	movl	$16, (%esp)
	call	__Z9Color_Setii
	movl	$__ZSt4endlIcSt11char_traitsIcEERSt13basic_ostreamIT_T0_ES6_, (%esp)
	movl	$__ZSt4cout, %ecx
	call	__ZNSolsEPFRSoS_E
	subl	$4, %esp
	movl	$250, (%esp)
	call	_Sleep@4
	subl	$4, %esp
	movl	$LC179, 4(%esp)
	movl	$__ZSt4cout, (%esp)
	call	__ZStlsISt11char_traitsIcEERSt13basic_ostreamIcT_ES5_PKc
	movl	$1, 4(%esp)
	movl	$1, (%esp)
	call	__Z9Color_Setii
	movl	$LC180, 4(%esp)
	movl	$__ZSt4cout, (%esp)
	call	__ZStlsISt11char_traitsIcEERSt13basic_ostreamIcT_ES5_PKc
	movl	$16, 4(%esp)
	movl	$16, (%esp)
	call	__Z9Color_Setii
	movl	$LC183, 4(%esp)
	movl	$__ZSt4cout, (%esp)
	call	__ZStlsISt11char_traitsIcEERSt13basic_ostreamIcT_ES5_PKc
	movl	$4, 4(%esp)
	movl	$4, (%esp)
	call	__Z9Color_Setii
	movl	$LC184, 4(%esp)
	movl	$__ZSt4cout, (%esp)
	call	__ZStlsISt11char_traitsIcEERSt13basic_ostreamIcT_ES5_PKc
	movl	$16, 4(%esp)
	movl	$16, (%esp)
	call	__Z9Color_Setii
	movl	$LC177, 4(%esp)
	movl	$__ZSt4cout, (%esp)
	call	__ZStlsISt11char_traitsIcEERSt13basic_ostreamIcT_ES5_PKc
	movl	$4, 4(%esp)
	movl	$4, (%esp)
	call	__Z9Color_Setii
	movl	$LC180, 4(%esp)
	movl	$__ZSt4cout, (%esp)
	call	__ZStlsISt11char_traitsIcEERSt13basic_ostreamIcT_ES5_PKc
	movl	$16, 4(%esp)
	movl	$16, (%esp)
	call	__Z9Color_Setii
	movl	$__ZSt4endlIcSt11char_traitsIcEERSt13basic_ostreamIT_T0_ES6_, (%esp)
	movl	$__ZSt4cout, %ecx
	call	__ZNSolsEPFRSoS_E
	subl	$4, %esp
	movl	$250, (%esp)
	call	_Sleep@4
	subl	$4, %esp
	movl	$LC179, 4(%esp)
	movl	$__ZSt4cout, (%esp)
	call	__ZStlsISt11char_traitsIcEERSt13basic_ostreamIcT_ES5_PKc
	movl	$1, 4(%esp)
	movl	$1, (%esp)
	call	__Z9Color_Setii
	movl	$LC180, 4(%esp)
	movl	$__ZSt4cout, (%esp)
	call	__ZStlsISt11char_traitsIcEERSt13basic_ostreamIcT_ES5_PKc
	movl	$16, 4(%esp)
	movl	$16, (%esp)
	call	__Z9Color_Setii
	movl	$LC185, 4(%esp)
	movl	$__ZSt4cout, (%esp)
	call	__ZStlsISt11char_traitsIcEERSt13basic_ostreamIcT_ES5_PKc
	movl	$4, 4(%esp)
	movl	$4, (%esp)
	call	__Z9Color_Setii
	movl	$LC184, 4(%esp)
	movl	$__ZSt4cout, (%esp)
	call	__ZStlsISt11char_traitsIcEERSt13basic_ostreamIcT_ES5_PKc
	movl	$16, 4(%esp)
	movl	$16, (%esp)
	call	__Z9Color_Setii
	movl	$LC115, 4(%esp)
	movl	$__ZSt4cout, (%esp)
	call	__ZStlsISt11char_traitsIcEERSt13basic_ostreamIcT_ES5_PKc
	movl	$4, 4(%esp)
	movl	$4, (%esp)
	call	__Z9Color_Setii
	movl	$LC180, 4(%esp)
	movl	$__ZSt4cout, (%esp)
	call	__ZStlsISt11char_traitsIcEERSt13basic_ostreamIcT_ES5_PKc
	movl	$16, 4(%esp)
	movl	$16, (%esp)
	call	__Z9Color_Setii
	movl	$__ZSt4endlIcSt11char_traitsIcEERSt13basic_ostreamIT_T0_ES6_, (%esp)
	movl	$__ZSt4cout, %ecx
	call	__ZNSolsEPFRSoS_E
	subl	$4, %esp
	movl	$250, (%esp)
	call	_Sleep@4
	subl	$4, %esp
	movl	$LC179, 4(%esp)
	movl	$__ZSt4cout, (%esp)
	call	__ZStlsISt11char_traitsIcEERSt13basic_ostreamIcT_ES5_PKc
	movl	$1, 4(%esp)
	movl	$1, (%esp)
	call	__Z9Color_Setii
	movl	$LC180, 4(%esp)
	movl	$__ZSt4cout, (%esp)
	call	__ZStlsISt11char_traitsIcEERSt13basic_ostreamIcT_ES5_PKc
	movl	$16, 4(%esp)
	movl	$16, (%esp)
	call	__Z9Color_Setii
	movl	$LC186, 4(%esp)
	movl	$__ZSt4cout, (%esp)
	call	__ZStlsISt11char_traitsIcEERSt13basic_ostreamIcT_ES5_PKc
	movl	$4, 4(%esp)
	movl	$4, (%esp)
	call	__Z9Color_Setii
	movl	$LC182, 4(%esp)
	movl	$__ZSt4cout, (%esp)
	call	__ZStlsISt11char_traitsIcEERSt13basic_ostreamIcT_ES5_PKc
	movl	$16, 4(%esp)
	movl	$16, (%esp)
	call	__Z9Color_Setii
	movl	$LC187, 4(%esp)
	movl	$__ZSt4cout, (%esp)
	call	__ZStlsISt11char_traitsIcEERSt13basic_ostreamIcT_ES5_PKc
	movl	$4, 4(%esp)
	movl	$4, (%esp)
	call	__Z9Color_Setii
	movl	$LC180, 4(%esp)
	movl	$__ZSt4cout, (%esp)
	call	__ZStlsISt11char_traitsIcEERSt13basic_ostreamIcT_ES5_PKc
	movl	$16, 4(%esp)
	movl	$16, (%esp)
	call	__Z9Color_Setii
	movl	$__ZSt4endlIcSt11char_traitsIcEERSt13basic_ostreamIT_T0_ES6_, (%esp)
	movl	$__ZSt4cout, %ecx
	call	__ZNSolsEPFRSoS_E
	subl	$4, %esp
	movl	$250, (%esp)
	call	_Sleep@4
	subl	$4, %esp
	movl	$LC179, 4(%esp)
	movl	$__ZSt4cout, (%esp)
	call	__ZStlsISt11char_traitsIcEERSt13basic_ostreamIcT_ES5_PKc
	movl	$1, 4(%esp)
	movl	$1, (%esp)
	call	__Z9Color_Setii
	movl	$LC180, 4(%esp)
	movl	$__ZSt4cout, (%esp)
	call	__ZStlsISt11char_traitsIcEERSt13basic_ostreamIcT_ES5_PKc
	movl	$16, 4(%esp)
	movl	$16, (%esp)
	call	__Z9Color_Setii
	movl	$LC188, 4(%esp)
	movl	$__ZSt4cout, (%esp)
	call	__ZStlsISt11char_traitsIcEERSt13basic_ostreamIcT_ES5_PKc
	movl	$4, 4(%esp)
	movl	$4, (%esp)
	call	__Z9Color_Setii
	movl	$LC189, 4(%esp)
	movl	$__ZSt4cout, (%esp)
	call	__ZStlsISt11char_traitsIcEERSt13basic_ostreamIcT_ES5_PKc
	movl	$16, 4(%esp)
	movl	$16, (%esp)
	call	__Z9Color_Setii
	movl	$LC190, 4(%esp)
	movl	$__ZSt4cout, (%esp)
	call	__ZStlsISt11char_traitsIcEERSt13basic_ostreamIcT_ES5_PKc
	movl	$4, 4(%esp)
	movl	$4, (%esp)
	call	__Z9Color_Setii
	movl	$LC180, 4(%esp)
	movl	$__ZSt4cout, (%esp)
	call	__ZStlsISt11char_traitsIcEERSt13basic_ostreamIcT_ES5_PKc
	movl	$16, 4(%esp)
	movl	$16, (%esp)
	call	__Z9Color_Setii
	movl	$__ZSt4endlIcSt11char_traitsIcEERSt13basic_ostreamIT_T0_ES6_, (%esp)
	movl	$__ZSt4cout, %ecx
	call	__ZNSolsEPFRSoS_E
	subl	$4, %esp
	movl	$250, (%esp)
	call	_Sleep@4
	subl	$4, %esp
	movl	$LC179, 4(%esp)
	movl	$__ZSt4cout, (%esp)
	call	__ZStlsISt11char_traitsIcEERSt13basic_ostreamIcT_ES5_PKc
	movl	$1, 4(%esp)
	movl	$1, (%esp)
	call	__Z9Color_Setii
	movl	$LC180, 4(%esp)
	movl	$__ZSt4cout, (%esp)
	call	__ZStlsISt11char_traitsIcEERSt13basic_ostreamIcT_ES5_PKc
	movl	$16, 4(%esp)
	movl	$16, (%esp)
	call	__Z9Color_Setii
	movl	$LC190, 4(%esp)
	movl	$__ZSt4cout, (%esp)
	call	__ZStlsISt11char_traitsIcEERSt13basic_ostreamIcT_ES5_PKc
	movl	$4, 4(%esp)
	movl	$4, (%esp)
	call	__Z9Color_Setii
	movl	$LC191, 4(%esp)
	movl	$__ZSt4cout, (%esp)
	call	__ZStlsISt11char_traitsIcEERSt13basic_ostreamIcT_ES5_PKc
	movl	$16, 4(%esp)
	movl	$16, (%esp)
	call	__Z9Color_Setii
	movl	$LC192, 4(%esp)
	movl	$__ZSt4cout, (%esp)
	call	__ZStlsISt11char_traitsIcEERSt13basic_ostreamIcT_ES5_PKc
	movl	$4, 4(%esp)
	movl	$4, (%esp)
	call	__Z9Color_Setii
	movl	$LC180, 4(%esp)
	movl	$__ZSt4cout, (%esp)
	call	__ZStlsISt11char_traitsIcEERSt13basic_ostreamIcT_ES5_PKc
	movl	$16, 4(%esp)
	movl	$16, (%esp)
	call	__Z9Color_Setii
	movl	$__ZSt4endlIcSt11char_traitsIcEERSt13basic_ostreamIT_T0_ES6_, (%esp)
	movl	$__ZSt4cout, %ecx
	call	__ZNSolsEPFRSoS_E
	subl	$4, %esp
	movl	$250, (%esp)
	call	_Sleep@4
	subl	$4, %esp
	movl	$LC179, 4(%esp)
	movl	$__ZSt4cout, (%esp)
	call	__ZStlsISt11char_traitsIcEERSt13basic_ostreamIcT_ES5_PKc
	movl	$1, 4(%esp)
	movl	$1, (%esp)
	call	__Z9Color_Setii
	movl	$LC180, 4(%esp)
	movl	$__ZSt4cout, (%esp)
	call	__ZStlsISt11char_traitsIcEERSt13basic_ostreamIcT_ES5_PKc
	movl	$16, 4(%esp)
	movl	$16, (%esp)
	call	__Z9Color_Setii
	movl	$LC190, 4(%esp)
	movl	$__ZSt4cout, (%esp)
	call	__ZStlsISt11char_traitsIcEERSt13basic_ostreamIcT_ES5_PKc
	movl	$4, 4(%esp)
	movl	$4, (%esp)
	call	__Z9Color_Setii
	movl	$LC191, 4(%esp)
	movl	$__ZSt4cout, (%esp)
	call	__ZStlsISt11char_traitsIcEERSt13basic_ostreamIcT_ES5_PKc
	movl	$16, 4(%esp)
	movl	$16, (%esp)
	call	__Z9Color_Setii
	movl	$__ZSt4endlIcSt11char_traitsIcEERSt13basic_ostreamIT_T0_ES6_, (%esp)
	movl	$__ZSt4cout, %ecx
	call	__ZNSolsEPFRSoS_E
	subl	$4, %esp
	movl	$250, (%esp)
	call	_Sleep@4
	subl	$4, %esp
	movl	$LC179, 4(%esp)
	movl	$__ZSt4cout, (%esp)
	call	__ZStlsISt11char_traitsIcEERSt13basic_ostreamIcT_ES5_PKc
	movl	$1, 4(%esp)
	movl	$1, (%esp)
	call	__Z9Color_Setii
	movl	$LC180, 4(%esp)
	movl	$__ZSt4cout, (%esp)
	call	__ZStlsISt11char_traitsIcEERSt13basic_ostreamIcT_ES5_PKc
	movl	$16, 4(%esp)
	movl	$16, (%esp)
	call	__Z9Color_Setii
	movl	$LC188, 4(%esp)
	movl	$__ZSt4cout, (%esp)
	call	__ZStlsISt11char_traitsIcEERSt13basic_ostreamIcT_ES5_PKc
	movl	$4, 4(%esp)
	movl	$4, (%esp)
	call	__Z9Color_Setii
	movl	$LC189, 4(%esp)
	movl	$__ZSt4cout, (%esp)
	call	__ZStlsISt11char_traitsIcEERSt13basic_ostreamIcT_ES5_PKc
	movl	$16, 4(%esp)
	movl	$16, (%esp)
	call	__Z9Color_Setii
	movl	$LC193, 4(%esp)
	movl	$__ZSt4cout, (%esp)
	call	__ZStlsISt11char_traitsIcEERSt13basic_ostreamIcT_ES5_PKc
	movl	$13, 4(%esp)
	movl	$13, (%esp)
	call	__Z9Color_Setii
	movl	$LC194, 4(%esp)
	movl	$__ZSt4cout, (%esp)
	call	__ZStlsISt11char_traitsIcEERSt13basic_ostreamIcT_ES5_PKc
	movl	$16, 4(%esp)
	movl	$16, (%esp)
	call	__Z9Color_Setii
	movl	$__ZSt4endlIcSt11char_traitsIcEERSt13basic_ostreamIT_T0_ES6_, (%esp)
	movl	$__ZSt4cout, %ecx
	call	__ZNSolsEPFRSoS_E
	subl	$4, %esp
	movl	$250, (%esp)
	call	_Sleep@4
	subl	$4, %esp
	movl	$LC179, 4(%esp)
	movl	$__ZSt4cout, (%esp)
	call	__ZStlsISt11char_traitsIcEERSt13basic_ostreamIcT_ES5_PKc
	movl	$1, 4(%esp)
	movl	$1, (%esp)
	call	__Z9Color_Setii
	movl	$LC180, 4(%esp)
	movl	$__ZSt4cout, (%esp)
	call	__ZStlsISt11char_traitsIcEERSt13basic_ostreamIcT_ES5_PKc
	movl	$16, 4(%esp)
	movl	$16, (%esp)
	call	__Z9Color_Setii
	movl	$LC186, 4(%esp)
	movl	$__ZSt4cout, (%esp)
	call	__ZStlsISt11char_traitsIcEERSt13basic_ostreamIcT_ES5_PKc
	movl	$4, 4(%esp)
	movl	$4, (%esp)
	call	__Z9Color_Setii
	movl	$LC182, 4(%esp)
	movl	$__ZSt4cout, (%esp)
	call	__ZStlsISt11char_traitsIcEERSt13basic_ostreamIcT_ES5_PKc
	movl	$16, 4(%esp)
	movl	$16, (%esp)
	call	__Z9Color_Setii
	movl	$LC195, 4(%esp)
	movl	$__ZSt4cout, (%esp)
	call	__ZStlsISt11char_traitsIcEERSt13basic_ostreamIcT_ES5_PKc
	movl	$13, 4(%esp)
	movl	$13, (%esp)
	call	__Z9Color_Setii
	movl	$LC194, 4(%esp)
	movl	$__ZSt4cout, (%esp)
	call	__ZStlsISt11char_traitsIcEERSt13basic_ostreamIcT_ES5_PKc
	movl	$16, 4(%esp)
	movl	$16, (%esp)
	call	__Z9Color_Setii
	movl	$__ZSt4endlIcSt11char_traitsIcEERSt13basic_ostreamIT_T0_ES6_, (%esp)
	movl	$__ZSt4cout, %ecx
	call	__ZNSolsEPFRSoS_E
	subl	$4, %esp
	movl	$250, (%esp)
	call	_Sleep@4
	subl	$4, %esp
	movl	$1, -16(%ebp)
	jmp	L172
L173:
	movl	$1, (%esp)
	call	__Z3endi
	movl	$250, (%esp)
	call	_Sleep@4
	subl	$4, %esp
	addl	$1, -16(%ebp)
L172:
	cmpl	$3, -16(%ebp)
	jle	L173
	movl	$LC196, 4(%esp)
	movl	$__ZSt4cout, (%esp)
	call	__ZStlsISt11char_traitsIcEERSt13basic_ostreamIcT_ES5_PKc
	movl	$10, 4(%esp)
	movl	$10, (%esp)
	call	__Z9Color_Setii
	movl	$LC197, 4(%esp)
	movl	$__ZSt4cout, (%esp)
	call	__ZStlsISt11char_traitsIcEERSt13basic_ostreamIcT_ES5_PKc
	movl	$16, 4(%esp)
	movl	$16, (%esp)
	call	__Z9Color_Setii
	movl	$LC193, 4(%esp)
	movl	$__ZSt4cout, (%esp)
	call	__ZStlsISt11char_traitsIcEERSt13basic_ostreamIcT_ES5_PKc
	movl	$14, 4(%esp)
	movl	$14, (%esp)
	call	__Z9Color_Setii
	movl	$LC197, 4(%esp)
	movl	$__ZSt4cout, (%esp)
	call	__ZStlsISt11char_traitsIcEERSt13basic_ostreamIcT_ES5_PKc
	movl	$16, 4(%esp)
	movl	$16, (%esp)
	call	__Z9Color_Setii
	movl	$LC193, 4(%esp)
	movl	$__ZSt4cout, (%esp)
	call	__ZStlsISt11char_traitsIcEERSt13basic_ostreamIcT_ES5_PKc
	movl	$15, 4(%esp)
	movl	$15, (%esp)
	call	__Z9Color_Setii
	movl	$LC197, 4(%esp)
	movl	$__ZSt4cout, (%esp)
	call	__ZStlsISt11char_traitsIcEERSt13basic_ostreamIcT_ES5_PKc
	movl	$16, 4(%esp)
	movl	$16, (%esp)
	call	__Z9Color_Setii
	movl	$LC193, 4(%esp)
	movl	$__ZSt4cout, (%esp)
	call	__ZStlsISt11char_traitsIcEERSt13basic_ostreamIcT_ES5_PKc
	movl	$1, 4(%esp)
	movl	$1, (%esp)
	call	__Z9Color_Setii
	movl	$LC197, 4(%esp)
	movl	$__ZSt4cout, (%esp)
	call	__ZStlsISt11char_traitsIcEERSt13basic_ostreamIcT_ES5_PKc
	movl	$16, 4(%esp)
	movl	$16, (%esp)
	call	__Z9Color_Setii
	movl	$__ZSt4endlIcSt11char_traitsIcEERSt13basic_ostreamIT_T0_ES6_, (%esp)
	movl	$__ZSt4cout, %ecx
	call	__ZNSolsEPFRSoS_E
	subl	$4, %esp
	movl	$250, (%esp)
	call	_Sleep@4
	subl	$4, %esp
	movl	$1, -20(%ebp)
	jmp	L174
L175:
	movl	$1, (%esp)
	call	__Z3endi
	movl	$250, (%esp)
	call	_Sleep@4
	subl	$4, %esp
	addl	$1, -20(%ebp)
L174:
	cmpl	$3, -20(%ebp)
	jle	L175
	movl	$2500, (%esp)
	call	_Sleep@4
	subl	$4, %esp
	movl	$1, 4(%esp)
	movl	$16, (%esp)
	call	__Z9Color_Setii
	movl	$LC212, 4(%esp)
	movl	$__ZSt4cout, (%esp)
	call	__ZStlsISt11char_traitsIcEERSt13basic_ostreamIcT_ES5_PKc
	movl	$__ZSt4endlIcSt11char_traitsIcEERSt13basic_ostreamIT_T0_ES6_, (%esp)
	movl	%eax, %ecx
	call	__ZNSolsEPFRSoS_E
	subl	$4, %esp
	movl	$250, (%esp)
	call	_Sleep@4
	subl	$4, %esp
	movl	$LC213, 4(%esp)
	movl	$__ZSt4cout, (%esp)
	call	__ZStlsISt11char_traitsIcEERSt13basic_ostreamIcT_ES5_PKc
	movl	$__ZSt4endlIcSt11char_traitsIcEERSt13basic_ostreamIT_T0_ES6_, (%esp)
	movl	%eax, %ecx
	call	__ZNSolsEPFRSoS_E
	subl	$4, %esp
	movl	$250, (%esp)
	call	_Sleep@4
	subl	$4, %esp
	movl	$LC214, 4(%esp)
	movl	$__ZSt4cout, (%esp)
	call	__ZStlsISt11char_traitsIcEERSt13basic_ostreamIcT_ES5_PKc
	movl	$__ZSt4endlIcSt11char_traitsIcEERSt13basic_ostreamIT_T0_ES6_, (%esp)
	movl	%eax, %ecx
	call	__ZNSolsEPFRSoS_E
	subl	$4, %esp
	movl	$250, (%esp)
	call	_Sleep@4
	subl	$4, %esp
	movl	$LC215, 4(%esp)
	movl	$__ZSt4cout, (%esp)
	call	__ZStlsISt11char_traitsIcEERSt13basic_ostreamIcT_ES5_PKc
	movl	$__ZSt4endlIcSt11char_traitsIcEERSt13basic_ostreamIT_T0_ES6_, (%esp)
	movl	%eax, %ecx
	call	__ZNSolsEPFRSoS_E
	subl	$4, %esp
	movl	$250, (%esp)
	call	_Sleep@4
	subl	$4, %esp
	movl	$__ZSt4endlIcSt11char_traitsIcEERSt13basic_ostreamIT_T0_ES6_, (%esp)
	movl	$__ZSt4cout, %ecx
	call	__ZNSolsEPFRSoS_E
	subl	$4, %esp
	movl	$LC0, (%esp)
	call	_system
	movl	$LC3, (%esp)
	call	_system
	leave
	.cfi_restore 5
	.cfi_def_cfa 4, 4
	ret
	.cfi_endproc
LFE1305:
	.globl	__Z7Settingv
	.def	__Z7Settingv;	.scl	2;	.type	32;	.endef
__Z7Settingv:
LFB1306:
	.cfi_startproc
	pushl	%ebp
	.cfi_def_cfa_offset 8
	.cfi_offset 5, -8
	movl	%esp, %ebp
	.cfi_def_cfa_register 5
	subl	$24, %esp
	movl	$LC6, (%esp)
	call	_system
	movl	$LC25, 4(%esp)
	movl	$__ZSt4cout, (%esp)
	call	__ZStlsISt11char_traitsIcEERSt13basic_ostreamIcT_ES5_PKc
	movl	$__ZSt4endlIcSt11char_traitsIcEERSt13basic_ostreamIT_T0_ES6_, (%esp)
	movl	%eax, %ecx
	call	__ZNSolsEPFRSoS_E
	subl	$4, %esp
	movl	$LC26, 4(%esp)
	movl	$__ZSt4cout, (%esp)
	call	__ZStlsISt11char_traitsIcEERSt13basic_ostreamIcT_ES5_PKc
	movl	$__ZSt4endlIcSt11char_traitsIcEERSt13basic_ostreamIT_T0_ES6_, (%esp)
	movl	%eax, %ecx
	call	__ZNSolsEPFRSoS_E
	subl	$4, %esp
	movl	$LC26, 4(%esp)
	movl	$__ZSt4cout, (%esp)
	call	__ZStlsISt11char_traitsIcEERSt13basic_ostreamIcT_ES5_PKc
	movl	$__ZSt4endlIcSt11char_traitsIcEERSt13basic_ostreamIT_T0_ES6_, (%esp)
	movl	%eax, %ecx
	call	__ZNSolsEPFRSoS_E
	subl	$4, %esp
	movl	$LC26, 4(%esp)
	movl	$__ZSt4cout, (%esp)
	call	__ZStlsISt11char_traitsIcEERSt13basic_ostreamIcT_ES5_PKc
	movl	$__ZSt4endlIcSt11char_traitsIcEERSt13basic_ostreamIT_T0_ES6_, (%esp)
	movl	%eax, %ecx
	call	__ZNSolsEPFRSoS_E
	subl	$4, %esp
	movl	$LC26, 4(%esp)
	movl	$__ZSt4cout, (%esp)
	call	__ZStlsISt11char_traitsIcEERSt13basic_ostreamIcT_ES5_PKc
	movl	$__ZSt4endlIcSt11char_traitsIcEERSt13basic_ostreamIT_T0_ES6_, (%esp)
	movl	%eax, %ecx
	call	__ZNSolsEPFRSoS_E
	subl	$4, %esp
	movl	$LC26, 4(%esp)
	movl	$__ZSt4cout, (%esp)
	call	__ZStlsISt11char_traitsIcEERSt13basic_ostreamIcT_ES5_PKc
	movl	$__ZSt4endlIcSt11char_traitsIcEERSt13basic_ostreamIT_T0_ES6_, (%esp)
	movl	%eax, %ecx
	call	__ZNSolsEPFRSoS_E
	subl	$4, %esp
	movl	$LC26, 4(%esp)
	movl	$__ZSt4cout, (%esp)
	call	__ZStlsISt11char_traitsIcEERSt13basic_ostreamIcT_ES5_PKc
	movl	$__ZSt4endlIcSt11char_traitsIcEERSt13basic_ostreamIT_T0_ES6_, (%esp)
	movl	%eax, %ecx
	call	__ZNSolsEPFRSoS_E
	subl	$4, %esp
	movl	$LC26, 4(%esp)
	movl	$__ZSt4cout, (%esp)
	call	__ZStlsISt11char_traitsIcEERSt13basic_ostreamIcT_ES5_PKc
	movl	$__ZSt4endlIcSt11char_traitsIcEERSt13basic_ostreamIT_T0_ES6_, (%esp)
	movl	%eax, %ecx
	call	__ZNSolsEPFRSoS_E
	subl	$4, %esp
	movl	$LC26, 4(%esp)
	movl	$__ZSt4cout, (%esp)
	call	__ZStlsISt11char_traitsIcEERSt13basic_ostreamIcT_ES5_PKc
	movl	$__ZSt4endlIcSt11char_traitsIcEERSt13basic_ostreamIT_T0_ES6_, (%esp)
	movl	%eax, %ecx
	call	__ZNSolsEPFRSoS_E
	subl	$4, %esp
	movl	$LC26, 4(%esp)
	movl	$__ZSt4cout, (%esp)
	call	__ZStlsISt11char_traitsIcEERSt13basic_ostreamIcT_ES5_PKc
	movl	$__ZSt4endlIcSt11char_traitsIcEERSt13basic_ostreamIT_T0_ES6_, (%esp)
	movl	%eax, %ecx
	call	__ZNSolsEPFRSoS_E
	subl	$4, %esp
	movl	$LC26, 4(%esp)
	movl	$__ZSt4cout, (%esp)
	call	__ZStlsISt11char_traitsIcEERSt13basic_ostreamIcT_ES5_PKc
	movl	$__ZSt4endlIcSt11char_traitsIcEERSt13basic_ostreamIT_T0_ES6_, (%esp)
	movl	%eax, %ecx
	call	__ZNSolsEPFRSoS_E
	subl	$4, %esp
	movl	$LC26, 4(%esp)
	movl	$__ZSt4cout, (%esp)
	call	__ZStlsISt11char_traitsIcEERSt13basic_ostreamIcT_ES5_PKc
	movl	$__ZSt4endlIcSt11char_traitsIcEERSt13basic_ostreamIT_T0_ES6_, (%esp)
	movl	%eax, %ecx
	call	__ZNSolsEPFRSoS_E
	subl	$4, %esp
	movl	$LC26, 4(%esp)
	movl	$__ZSt4cout, (%esp)
	call	__ZStlsISt11char_traitsIcEERSt13basic_ostreamIcT_ES5_PKc
	movl	$__ZSt4endlIcSt11char_traitsIcEERSt13basic_ostreamIT_T0_ES6_, (%esp)
	movl	%eax, %ecx
	call	__ZNSolsEPFRSoS_E
	subl	$4, %esp
	movl	$LC26, 4(%esp)
	movl	$__ZSt4cout, (%esp)
	call	__ZStlsISt11char_traitsIcEERSt13basic_ostreamIcT_ES5_PKc
	movl	$__ZSt4endlIcSt11char_traitsIcEERSt13basic_ostreamIT_T0_ES6_, (%esp)
	movl	%eax, %ecx
	call	__ZNSolsEPFRSoS_E
	subl	$4, %esp
	movl	$LC26, 4(%esp)
	movl	$__ZSt4cout, (%esp)
	call	__ZStlsISt11char_traitsIcEERSt13basic_ostreamIcT_ES5_PKc
	movl	$__ZSt4endlIcSt11char_traitsIcEERSt13basic_ostreamIT_T0_ES6_, (%esp)
	movl	%eax, %ecx
	call	__ZNSolsEPFRSoS_E
	subl	$4, %esp
	movl	$LC27, 4(%esp)
	movl	$__ZSt4cout, (%esp)
	call	__ZStlsISt11char_traitsIcEERSt13basic_ostreamIcT_ES5_PKc
	movl	$__ZSt4endlIcSt11char_traitsIcEERSt13basic_ostreamIT_T0_ES6_, (%esp)
	movl	%eax, %ecx
	call	__ZNSolsEPFRSoS_E
	subl	$4, %esp
	movl	$LC28, 4(%esp)
	movl	$__ZSt4cout, (%esp)
	call	__ZStlsISt11char_traitsIcEERSt13basic_ostreamIcT_ES5_PKc
	movl	$__ZSt4endlIcSt11char_traitsIcEERSt13basic_ostreamIT_T0_ES6_, (%esp)
	movl	%eax, %ecx
	call	__ZNSolsEPFRSoS_E
	subl	$4, %esp
	movl	$LC28, 4(%esp)
	movl	$__ZSt4cout, (%esp)
	call	__ZStlsISt11char_traitsIcEERSt13basic_ostreamIcT_ES5_PKc
	movl	$__ZSt4endlIcSt11char_traitsIcEERSt13basic_ostreamIT_T0_ES6_, (%esp)
	movl	%eax, %ecx
	call	__ZNSolsEPFRSoS_E
	subl	$4, %esp
	movl	$LC28, 4(%esp)
	movl	$__ZSt4cout, (%esp)
	call	__ZStlsISt11char_traitsIcEERSt13basic_ostreamIcT_ES5_PKc
	movl	$__ZSt4endlIcSt11char_traitsIcEERSt13basic_ostreamIT_T0_ES6_, (%esp)
	movl	%eax, %ecx
	call	__ZNSolsEPFRSoS_E
	subl	$4, %esp
	movl	$LC28, 4(%esp)
	movl	$__ZSt4cout, (%esp)
	call	__ZStlsISt11char_traitsIcEERSt13basic_ostreamIcT_ES5_PKc
	movl	$__ZSt4endlIcSt11char_traitsIcEERSt13basic_ostreamIT_T0_ES6_, (%esp)
	movl	%eax, %ecx
	call	__ZNSolsEPFRSoS_E
	subl	$4, %esp
	movl	$LC27, 4(%esp)
	movl	$__ZSt4cout, (%esp)
	call	__ZStlsISt11char_traitsIcEERSt13basic_ostreamIcT_ES5_PKc
	movl	$__ZSt4endlIcSt11char_traitsIcEERSt13basic_ostreamIT_T0_ES6_, (%esp)
	movl	%eax, %ecx
	call	__ZNSolsEPFRSoS_E
	subl	$4, %esp
	movl	$LC26, 4(%esp)
	movl	$__ZSt4cout, (%esp)
	call	__ZStlsISt11char_traitsIcEERSt13basic_ostreamIcT_ES5_PKc
	movl	$__ZSt4endlIcSt11char_traitsIcEERSt13basic_ostreamIT_T0_ES6_, (%esp)
	movl	%eax, %ecx
	call	__ZNSolsEPFRSoS_E
	subl	$4, %esp
	movl	$LC25, 4(%esp)
	movl	$__ZSt4cout, (%esp)
	call	__ZStlsISt11char_traitsIcEERSt13basic_ostreamIcT_ES5_PKc
	movl	$__ZSt4endlIcSt11char_traitsIcEERSt13basic_ostreamIT_T0_ES6_, (%esp)
	movl	%eax, %ecx
	call	__ZNSolsEPFRSoS_E
	subl	$4, %esp
	movl	$LC3, (%esp)
	call	_system
	leave
	.cfi_restore 5
	.cfi_def_cfa 4, 4
	ret
	.cfi_endproc
LFE1306:
	.globl	__Z15Fight_ChuShiHuai
	.def	__Z15Fight_ChuShiHuai;	.scl	2;	.type	32;	.endef
__Z15Fight_ChuShiHuai:
LFB1307:
	.cfi_startproc
	pushl	%ebp
	.cfi_def_cfa_offset 8
	.cfi_offset 5, -8
	movl	%esp, %ebp
	.cfi_def_cfa_register 5
	movl	8(%ebp), %eax
	cmpl	$1, %eax
	je	L179
	cmpl	$2, %eax
	je	L180
	jmp	L182
L179:
	movl	$1, _Hero+188
	movl	$50, _Hero+20
	movl	$70, _Hero+24
	movl	$1000, _Hero+8
	movl	$1000, _Hero+4
	movl	$1, _Hero+16
	movl	$1, _Hero+12
	movl	$0, _Hero
	movl	$1, _Hero+28
	movl	$1, _Hero+152
	movb	$1, _Hero+49
	movl	$1, _Hero+156
	movl	$0, _Hero+160
	jmp	L177
L180:
	movl	$2, _Hero+188
	movl	$1, _Hero+20
	movl	$5, _Hero+24
	movl	$70, _Hero+8
	movl	$70, _Hero+4
	movl	$0, _Hero+16
	movl	$0, _Hero+12
	movl	$0, _Hero
	movl	$1, _Hero+28
	movl	$1, _Hero+152
	movb	$1, _Hero+49
	movb	$1, _Hero+50
	movl	$1, _Hero+156
	movl	$0, _Hero+160
	jmp	L177
L182:
	movl	$1, _Hero+20
	movl	$3, _Hero+24
	movl	$50, _Hero+4
	movl	$0, _Hero
	movl	$1, _Hero+28
	movl	$0, _Hero+152
	movl	$1, _Hero+156
	movl	$0, _Hero+160
	nop
L177:
	popl	%ebp
	.cfi_restore 5
	.cfi_def_cfa 4, 4
	ret
	.cfi_endproc
LFE1307:
	.section .rdata,"dr"
	.align 4
LC216:
	.ascii "-                                  ***                                        -\0"
	.align 4
LC217:
	.ascii "-                                 *   *                                       -\0"
	.align 4
LC218:
	.ascii "-                               *  ***  *                                     -\0"
	.align 4
LC219:
	.ascii "-                                *  *  *                                      -\0"
	.align 4
LC220:
	.ascii "-                                 *****                                       -\0"
	.align 4
LC221:
	.ascii "-                                   *                                         -\0"
	.align 4
LC222:
	.ascii "-                                  * *                                        -\0"
	.align 4
LC223:
	.ascii "-   *                            \325\275\266\267\312\244\300\373\243\241                               *   -\0"
	.align 4
LC224:
	.ascii "-    *                                                                 \325\275\266\267\312\244\300\373\243\241\243\241\243\241                                                                *     -\0"
	.align 4
LC225:
	.ascii "-                                                        +                                                                                                 -\0"
	.align 4
LC226:
	.ascii "-                                                                                              +                                                           -\0"
	.align 4
LC227:
	.ascii "-                                                                                  +                                                                       -\0"
	.align 4
LC228:
	.ascii "-                                                                        *****                                                                             -\0"
	.align 4
LC229:
	.ascii "-                                                 +                *    *     *    *                                                                       -\0"
	.align 4
LC230:
	.ascii "-                                                                    *   *****   *                                                                         -\0"
	.align 4
LC231:
	.ascii "-                                                                      *   *   *                                                                           -\0"
	.align 4
LC232:
	.ascii "-                                                                +         *                                                                               -\0"
	.align 4
LC233:
	.ascii "-                                                                          *                                                                               -\0"
	.align 4
LC234:
	.ascii "-                                                                          *                  +                                                            -\0"
	.align 4
LC235:
	.ascii "-                                                +                         *                                                                               -\0"
	.align 4
LC236:
	.ascii "-                                                                         * *                             +                                                -\0"
	.align 4
LC237:
	.ascii "-                                                                        *   *                                                                             -\0"
	.align 4
LC238:
	.ascii "-                                                                       *     *                                                                            -\0"
	.align 4
LC239:
	.ascii "-                                                                      *       *                                                                           -\0"
	.align 4
LC240:
	.ascii "-   *                       \261\273\265\320\310\313\260\374\316\247\301\313\243\241\314\323\305\334\312\247\260\334\243\241                      *   -\0"
	.align 4
LC241:
	.ascii "-   *                              \314\345\301\246\262\273\327\343                               *   -\0"
	.align 4
LC242:
	.ascii "-                 \367\274\367\303\325\275\312\277.                                                    -\0"
	.align 4
LC243:
	.ascii "-                  *******                                                    -\0"
	.align 4
LC244:
	.ascii "-                **       **                                                  -\0"
	.align 4
LC245:
	.ascii "-               * ***   *** *                           /                     -\0"
	.align 4
LC246:
	.ascii "-              *  * *   * *  *                        /                       -\0"
	.align 4
LC247:
	.ascii "-              *  ***   ***  *                      /                         -\0"
	.align 4
LC248:
	.ascii "-               *           *                     /                           -\0"
	.align 4
LC249:
	.ascii "-                ***|||||***                    /                             -\0"
	.align 4
LC250:
	.ascii "-                   *****                  -  /                               -\0"
	.align 4
LC251:
	.ascii "-                                           -+-                               -\0"
	.align 4
LC252:
	.ascii "-                                          *** -                              -\0"
	.align 4
LC253:
	.ascii "-                                         *   *                               -\0"
	.align 4
LC254:
	.ascii "-                                          **  *                              -\0"
	.align 4
LC255:
	.ascii "-                                            *  *                             -\0"
	.align 4
LC256:
	.ascii "-               * ***   *** *                      /                          -\0"
	.align 4
LC257:
	.ascii "-              *  * *   * *  *                    /                           -\0"
	.align 4
LC258:
	.ascii "-              *  ***   ***  *                   /                            -\0"
	.align 4
LC259:
	.ascii "-               *           *                   /                             -\0"
	.align 4
LC260:
	.ascii "-                ***|||||***                   /                              -\0"
	.align 4
LC261:
	.ascii "-               * ***   *** *              |                                  -\0"
	.align 4
LC262:
	.ascii "-              *  * *   * *  *             |                                  -\0"
	.align 4
LC263:
	.ascii "-              *  ***   ***  *             |                                  -\0"
	.align 4
LC264:
	.ascii "-               *           *              |                                  -\0"
	.align 4
LC265:
	.ascii "-                ***|||||***               |                                  -\0"
	.align 4
LC266:
	.ascii "-                   *****                  |                                  -\0"
	.align 4
LC267:
	.ascii "-                                        --+--                                -\0"
	.align 4
LC268:
	.ascii "-                                          ***                                -\0"
	.align 4
LC269:
	.ascii "-               * ***   *** *       \\                                         -\0"
	.align 4
LC270:
	.ascii "-              *  * *   * *  *       \\                                        -\0"
	.align 4
LC271:
	.ascii "-              *  ***   ***  *        \\                                       -\0"
	.align 4
LC272:
	.ascii "-               *           *          \\                                      -\0"
	.align 4
LC273:
	.ascii "-                ***|||||***            \\                                     -\0"
	.align 4
LC274:
	.ascii "-                   *****                \\  -                                 -\0"
	.align 4
LC275:
	.ascii "-                                        -+-                                  -\0"
	.align 4
LC276:
	.ascii "-                                       -  ***                                -\0"
	.align 4
LC277:
	.ascii "-               * ***   *** *  \\                                              -\0"
	.align 4
LC278:
	.ascii "-              *  * *   * *  *   \\                                            -\0"
	.align 4
LC279:
	.ascii "-              *  ***   ***  *     \\                                          -\0"
	.align 4
LC280:
	.ascii "-               *           *        \\                                        -\0"
	.align 4
LC281:
	.ascii "-                ***|||||***           \\                                      -\0"
	.align 4
LC282:
	.ascii "-               * ***   *** ====                                              -\0"
	.align 4
LC283:
	.ascii "-              *  * *   * ========                                            -\0"
	.align 4
LC284:
	.ascii "-              *  ***   *** ====\\                                             -\0"
	.align 4
LC285:
	.ascii "-               *           *      \\                                          -\0"
	.align 4
LC286:
	.ascii "-                ***|||||***          \\                                       -\0"
	.align 4
LC287:
	.ascii "-   *                       \326\330\273\367\301\313\367\274\367\303\325\275\312\277\243\241\243\241\243\241                          *   -\0"
	.align 4
LC288:
	.ascii "-   *                        \326\330\273\367\301\313\367\274\367\303\325\275\312\277\243\241\243\241\243\241                         *   -\0"
	.align 4
LC289:
	.ascii "-   *                             <\0"
	.align 4
LC290:
	.ascii ">\11                              *   -\0"
	.align 4
LC291:
	.ascii "-                **       **       *                                          -\0"
	.align 4
LC292:
	.ascii "-               * ***   *** *     /                                           -\0"
	.align 4
LC293:
	.ascii "-              *  * *   * *  *   /                                            -\0"
	.align 4
LC294:
	.ascii "-              *  ***   ***  *  /                                             -\0"
	.align 4
LC295:
	.ascii "-               *           *  /                                              -\0"
	.align 4
LC296:
	.ascii "-                ***|||||***  /                                               -\0"
	.align 4
LC297:
	.ascii "-                   *****    /                                                -\0"
	.align 4
LC298:
	.ascii "-                           /                                                 -\0"
	.align 4
LC299:
	.ascii "-                                      |   ***                                -\0"
	.align 4
LC300:
	.ascii "-                      ----------------+--*   *                               -\0"
	.align 4
LC301:
	.ascii "-                                      |   **  *                              -\0"
	.align 4
LC302:
	.ascii "-                **       **           *                                      -\0"
	.align 4
LC303:
	.ascii "-               * ***   *** *        /                                        -\0"
	.align 4
LC304:
	.ascii "-              *  * *   * *  *     /                                          -\0"
	.align 4
LC305:
	.ascii "-              *  ***   ***  *   /                                            -\0"
	.align 4
LC306:
	.ascii "-                ***|||||*** /                                                -\0"
	.align 4
LC307:
	.ascii "-                   *****  /                                                  -\0"
	.align 4
LC308:
	.ascii "-               * ***   *** *                                                 -\0"
	.align 4
LC309:
	.ascii "-              *  * *   * *  *                                                -\0"
	.align 4
LC310:
	.ascii "-              *  ***   ***  *                                                -\0"
	.align 4
LC311:
	.ascii "-               *           *                                                 -\0"
	.align 4
LC312:
	.ascii "-                ***|||||***   ----*                                          -\0"
	.align 4
LC313:
	.ascii "-                   *****                                                     -\0"
	.align 4
LC314:
	.ascii "-               *           *  |                                              -\0"
	.align 4
LC315:
	.ascii "-                ***|||||***    |                                             -\0"
	.align 4
LC316:
	.ascii "-                   *****        |                                            -\0"
	.align 4
LC317:
	.ascii "-                ***|||||***   |                                              -\0"
	.align 4
LC318:
	.ascii "-                   *****      |                                              -\0"
	.align 4
LC319:
	.ascii "-                              |                                              -\0"
	.align 4
LC320:
	.ascii "-                            ==|=      |   ***                                -\0"
	.align 4
LC321:
	.ascii "-                      -----===|===----+--*   *                               -\0"
	.align 4
LC322:
	.ascii "-                            ==*==     |   **  *                              -\0"
	.align 4
LC323:
	.ascii "-                              =             *  *                             -\0"
	.align 4
LC324:
	.ascii "-   *                             \356\365\243\241\243\241\243\241                                *   -\0"
	.align 4
LC325:
	.ascii "-   *                      \267\300\323\371\327\241\301\313\367\274\367\303\325\275\312\277\265\304\271\245\273\367\243\241                       *   -\0"
	.align 4
LC326:
	.ascii "-   *                               <\0"
	.align 4
LC327:
	.ascii ">\11                          *   -\0"
	.align 4
LC328:
	.ascii "-   *  \323\302\325\337:                                                              *   -\0"
	.align 4
LC329:
	.ascii "-   *      \325\342\312\307\316\322\265\332\322\273\264\316\323\353\271\326\316\357\325\275\266\267\260\241\243\241                                     *   -\0"
	.align 4
LC330:
	.ascii "-   *          \324\365\303\264\304\334\314\323\305\334\304\330\243\241\243\277\243\241                                         *   -\0"
	.align 4
LC331:
	.ascii "-                                             -                               -\0"
	.align 4
LC332:
	.ascii "-                             ***      -                                      -\0"
	.align 4
LC333:
	.ascii "-               ***           ***                                             -\0"
	.align 4
LC334:
	.ascii "-              *   *  /        *            -                                 -\0"
	.align 4
LC335:
	.ascii "-               ***====      *****  __                                        -\0"
	.align 4
LC336:
	.ascii "-                ==*--------*- *  *|  |                                       -\0"
	.align 4
LC337:
	.ascii "-               **-+==         *   |  |   -                                   -\0"
	.align 4
LC338:
	.ascii "-                **           ***   \\/        -                               -\0"
	.align 4
LC339:
	.ascii "-                *            * *                                             -\0"
	.align 4
LC340:
	.ascii "-               * *           * *                                             -\0"
	.align 4
LC341:
	.ascii "-   *      \260\241\243\241             \304\343\312\334\265\275\301\313\271\326\316\357\265\304\271\245\273\367                            *   -\0"
	.align 4
LC342:
	.ascii "-                                             -         *** ^                 -\0"
	.align 4
LC343:
	.ascii "-                                      -                *** |                 -\0"
	.align 4
LC344:
	.ascii "-              *   *  /                     -      |  |*****|                 -\0"
	.align 4
LC345:
	.ascii "-               **-+-                     -             * *                   -\0"
	.align 4
LC346:
	.ascii "-                **                           -         * *                   -\0"
	.align 4
LC347:
	.ascii "-   *                       \304\343\312\334\265\275\301\313\271\326\316\357\265\304\271\245\273\367                            *   -\0"
	.align 4
LC348:
	.ascii "-   *                       \271\245\273\367\301\313\367\274\367\303\325\275\312\277\243\241\243\241\243\241                          *   -\0"
	.align 4
LC349:
	.ascii "-               * ***   ***____=_____                                         -\0"
	.align 4
LC350:
	.ascii "-              *  * *   * |   ===    |                                        -\0"
	.align 4
LC351:
	.ascii "-              *  ***   **|    =\\=   |                                        -\0"
	.align 4
LC352:
	.ascii "-               *         |        \\ |                                        -\0"
	.align 4
LC353:
	.ascii "-                ***|||||*|          |\\                                       -\0"
	.align 4
LC354:
	.ascii "-                   ***** |          |   \\  -                                 -\0"
	.align 4
LC355:
	.ascii "-                         |          |   -+-                                  -\0"
	.align 4
LC356:
	.ascii "-                          \\        /   -  ***                                -\0"
	.align 4
LC357:
	.ascii "-                            \\    /       *   *                               -\0"
	.align 4
LC358:
	.ascii "-                              \\/          **  *                              -\0"
	.align 4
LC359:
	.ascii "-   *                           \271\245\273\367\261\273\270\361\265\262\301\313\243\241                            *   -\0"
	.align 4
LC360:
	.ascii ">\11                                  *   -\0"
	.align 4
LC361:
	.ascii "-                                 \304\343\261\273\311\261\313\300\301\313                                  -\0"
	.align 4
LC362:
	.ascii "-    GGGGG     A      M M    EEEEE           OOOOO   V   V   EEEEE   RRRR     -\0"
	.align 4
LC363:
	.ascii "-    G        A A    M M M   E               O   O   V   V   E       R   R    -\0"
	.align 4
LC364:
	.ascii "-    G   G   AAAAA   M M M   EEEEE           O   O   V   V   EEEEE   RRRR     -\0"
	.align 4
LC365:
	.ascii "-    G   G   A   A   M M M   E               O   O    V V    E       R  R     -\0"
	.align 4
LC366:
	.ascii "-    GGGGG   A   A   M M M   EEEEE           OOOOO     V     EEEEE   R   R    -\0"
	.align 4
LC367:
	.ascii "-                             Thanks For Playing                              -\0"
	.align 4
LC368:
	.ascii "-        Y   Y   OOOOO   U   U               DDDD    EEEEE     A     DDDD     -\0"
	.align 4
LC369:
	.ascii "-         Y Y    O   O   U   U               D   D   E        A A    D   D    -\0"
	.align 4
LC370:
	.ascii "-          Y     O   O   U   U               D   D   EEEEE   AAAAA   D   D    -\0"
	.align 4
LC371:
	.ascii "-          Y     O   O   U   U               D   D   E       A   A   D   D    -\0"
	.align 4
LC372:
	.ascii "-          Y     OOOOO    UUU                DDDD    EEEEE   A   A   DDDD     -\0"
	.align 4
LC373:
	.ascii "-                                    ***            __   *  |                 -\0"
	.align 4
LC374:
	.ascii "-             -                     *   *          |  |*****|                 -\0"
	.align 4
LC375:
	.ascii "-                                    ***           |  |  *  |                 -\0"
	.align 4
LC376:
	.ascii "-         -                           *             \\/  ***                   -\0"
	.align 4
LC377:
	.ascii "-                -                 |  **                * *                   -\0"
	.align 4
LC378:
	.ascii "-                       -----------+-**                 * *                   -\0"
	.align 4
LC379:
	.ascii "-      -                           |  *                                       -\0"
	.align 4
LC380:
	.ascii "-              -                     * *                                      -\0"
	.align 4
LC381:
	.ascii "-                                   *  *                                      -\0"
	.align 4
LC382:
	.ascii "-                                   *   *          |  |*****|                 -\0"
	.align 4
LC383:
	.ascii "-                                     *             \\/  ***                   -\0"
	.align 4
LC384:
	.ascii "-                                    **                 * *                   -\0"
	.align 4
LC385:
	.ascii "-                                     **\\ /             * *                   -\0"
	.align 4
LC386:
	.ascii "-                                     *  +                                    -\0"
	.align 4
LC387:
	.ascii "-                                    * */ \\                                   -\0"
	.align 4
LC388:
	.ascii "-                                   *  *   \\                                  -\0"
	.align 4
LC389:
	.ascii "-                                           \\                                 -\0"
	.align 4
LC390:
	.ascii "-                                    ** |               * *                   -\0"
	.align 4
LC391:
	.ascii "-                                     **+-----------    * *                   -\0"
	.align 4
LC392:
	.ascii "-                                     * |                                     -\0"
	.align 4
LC393:
	.ascii "-                                    * *                                      -\0"
	.align 4
LC394:
	.ascii "-                                    ***          ==__   *  |                 -\0"
	.align 4
LC395:
	.ascii "-                                   *   *        =/== |*****|                 -\0"
	.align 4
LC396:
	.ascii "-                                    ***       /  ==  |  *  |                 -\0"
	.align 4
LC397:
	.ascii "-                                     *     /       \\/  ***                   -\0"
	.align 4
LC398:
	.ascii "-                                    **| /              * *                   -\0"
	.align 4
LC399:
	.ascii "-                                     **+               * *                   -\0"
	.align 4
LC400:
	.ascii "-                                     *  |                                    -\0"
	.align 4
LC401:
	.ascii "-                                  |  **                * *                   -\0"
	.align 4
LC402:
	.ascii "-                                  |  *                                       -\0"
	.align 4
LC403:
	.ascii "-                                    *  *                                     -\0"
	.align 4
LC404:
	.ascii "-   *                                 !                                   *   -\0"
	.align 4
LC405:
	.ascii "-   *                               ! ! !                                 *   -\0"
	.align 4
LC406:
	.ascii "-                                      \\                                      -\0"
	.align 4
LC407:
	.ascii "-                                   -   \\                                     -\0"
	.align 4
LC408:
	.ascii "-                               -    -   \\              *** ^                 -\0"
	.align 4
LC409:
	.ascii "-                                     -   \\             *** |                 -\0"
	.align 4
LC410:
	.ascii "-                                    ***   \\  -     __   *  |                 -\0"
	.align 4
LC411:
	.ascii "-                                   *   *  -+-     |  |*****|                 -\0"
	.align 4
LC412:
	.ascii "-                                    ***  -*       |  |  *  |                 -\0"
	.align 4
LC413:
	.ascii "-                                     *   *         \\/  ***                   -\0"
	.align 4
LC414:
	.ascii "-                                    *****              * *                   -\0"
	.align 4
LC415:
	.ascii "-                                     *                 * *                   -\0"
	.align 4
LC416:
	.ascii "-   *                       -  -  -  -  -  -  -  -                        *   -\0"
	.align 4
LC417:
	.ascii "-                                                    =  *** ^                 -\0"
	.align 4
LC418:
	.ascii "-                                             =         *** |                 -\0"
	.align 4
LC419:
	.ascii "-                                    ***         ====_  ==  |                 -\0"
	.align 4
LC420:
	.ascii "-                                   *   * =   ====/====*****|                 -\0"
	.align 4
LC421:
	.ascii "-                                    ***       / ==== |  *= |                 -\0"
	.align 4
LC422:
	.ascii "-                                     *     /   =   \\/  ***                   -\0"
	.align 4
LC423:
	.ascii "-                                    **| /          =   * *                   -\0"
	.align 4
LC424:
	.ascii "-   *                         ! ! ! \320\375\267\347\325\266 ! ! !                          *   -\0"
	.align 4
LC425:
	.ascii "-                                                          ******************   ******************                                                         -\0"
	.align 4
LC426:
	.ascii "-                                                      *********************** ***********************                                                     -\0"
	.align 4
LC427:
	.ascii "-                                                    ***************************************************                                                   -\0"
	.align 4
LC428:
	.ascii "-                                                  *******************************************************                                                 -\0"
	.align 4
LC429:
	.ascii "-                                                **********************************************************                                                -\0"
	.align 4
LC430:
	.ascii "-                                            ******************************************************************                                            -\0"
	.align 4
LC431:
	.ascii "-                                          *******************************         ******************************                                          -\0"
	.align 4
LC432:
	.ascii "-                                        ***********************************     ***********************************                                       -\0"
	.align 4
LC433:
	.ascii "-                                                       |||||     |||||               |||||     |||||                                                      -\0"
	.align 4
LC434:
	.ascii "-                                                       |||||     |||*                 *|||     |||||                                                      -\0"
	.align 4
LC435:
	.ascii "-                                                       |||||      *          \241\374         *      |||||                                                      -\0"
	.align 4
LC436:
	.ascii "-                                                       |||||    *                         *    |||||                                                      -\0"
	.align 4
LC437:
	.ascii "-                                                       |||||  *                             *  |||||                                                      -\0"
	.align 4
LC438:
	.ascii "-                                                       |||||*                                 *|||||                                                      -\0"
	.align 4
LC439:
	.ascii "-                                                       |||*                                     *|||                                                      -\0"
	.align 4
LC440:
	.ascii "-                                                        *                                         *                                                       -\0"
	.align 4
LC441:
	.ascii "-                                                      *                                             *                                                     -\0"
	.align 4
LC442:
	.ascii "-    *                                                            \325\342\300\357\303\273\323\320\302\267\277\311\322\324\327\337orz                                                                *     -\0"
	.align 4
LC443:
	.ascii "-                                                       |||||      *          \241\375         *      |||||                                                      -\0"
	.align 4
LC444:
	.ascii "-                                        ********************************           ********************************                                       -\0"
	.align 4
LC445:
	.ascii "-                                                       |||||     |||||      ***      |||||     |||||                                                      -\0"
	.align 4
LC446:
	.ascii "-                                                       |||||     |||||       *       |||||     |||||                                                      -\0"
	.align 4
LC447:
	.ascii "-                                                       |||||     |||||    |\\***      |||||     |||||                                                      -\0"
	.align 4
LC448:
	.ascii "-                                                       |||||     |||*     |*|*        *|||     |||||                                                      -\0"
	.align 4
LC449:
	.ascii "-                                                       |||||      *       * |*          *      |||||                                                      -\0"
	.align 4
LC450:
	.ascii "-                                                       |||||    *         |/* *           *    |||||                                                      -\0"
	.align 4
LC451:
	.ascii "-                                                       |||||  *             *               *  |||||                                                      -\0"
	.align 4
LC452:
	.ascii "-    *                                                                    \263\366\317\326\271\326\316\357                                                                   *     -\0"
	.align 4
LC453:
	.ascii "-                                                                             *    *********    *                                                          -\0"
	.align 4
LC454:
	.ascii "-                                                                              * ************* *                                                           -\0"
	.align 4
LC455:
	.ascii "-                                                                               ***         ***                                                            -\0"
	.align 4
LC456:
	.ascii "-                                                                               ***          **                                                            -\0"
	.align 4
LC457:
	.ascii "-                                                                               **           **                                                            -\0"
	.align 4
LC458:
	.ascii "-                                                                                *           *                                                             -\0"
	.align 4
LC459:
	.ascii "-                                                                                 **       **                                                              -\0"
	.align 4
LC460:
	.ascii "-                                                                                   *******                                                                -\0"
	.align 4
LC461:
	.ascii "-                                                          /\\                                                                                              -\0"
	.align 4
LC462:
	.ascii "-                            ******************************||                                                                                              -\0"
	.align 4
LC463:
	.ascii "-                          *                               ||  *****                                                                                       -\0"
	.align 4
LC464:
	.ascii "-                        *---------------------------------||=*     *=]                                                                                    -\0"
	.align 4
LC465:
	.ascii "-                          *                               ||  *   *                                                                                       -\0"
	.align 4
LC466:
	.ascii "-                            ******************************||  *   *                                                                                       -\0"
	.align 4
LC467:
	.ascii "-                                                          \\/ *   *                                                                                        -\0"
	.align 4
LC468:
	.ascii "-                                                            *   *                                                                                         -\0"
	.align 4
LC469:
	.ascii "-                                                           *   *                                                                                          -\0"
	.align 4
LC470:
	.ascii "-                                                          *   *                                                                                           -\0"
	.align 4
LC471:
	.ascii "-                                                       \\ \\                   *    *********    *                                                          -\0"
	.align 4
LC472:
	.ascii "-                                                      \\ \\  \\                  * ************* *                                                           -\0"
	.align 4
LC473:
	.ascii "-                                                      \\  \\  \\                  ***         ***                                                            -\0"
	.align 4
LC474:
	.ascii "-                                                       \\  \\  \\                 ***          **                                                            -\0"
	.align 4
LC475:
	.ascii "-                                                        \\  \\  \\                **           **                                                            -\0"
	.align 4
LC476:
	.ascii "-                                                         \\  \\  \\                *           *                                                             -\0"
	.align 4
LC477:
	.ascii "-                                                          \\  \\  \\                **       **                                                              -\0"
	.align 4
LC478:
	.ascii "-                                                           \\  \\  \\ *               *******                                                                -\0"
	.align 4
LC479:
	.ascii "-                                                            \\  *                                                                                          -\0"
	.align 4
LC480:
	.ascii "-                                                           *    \\                                                                                         -\0"
	.align 4
LC481:
	.ascii "-                                                              *****                                                                                       -\0"
	.align 4
LC482:
	.ascii "-                                                             *     *                                                                                      -\0"
	.align 4
LC483:
	.ascii "-                                                              *   *\\                                                                                      -\0"
	.align 4
LC484:
	.ascii "-                                                              *   * *                                                                                     -\0"
	.align 4
LC485:
	.ascii "-                                                             *   *                                                                                        -\0"
	.align 4
LC486:
	.ascii "-                                                                        |                                                                                 -\0"
	.align 4
LC487:
	.ascii "-                                                                       |||   *    *********    *                                                          -\0"
	.align 4
LC488:
	.ascii "-                                                                      | | |   * ************* *                                                           -\0"
	.align 4
LC489:
	.ascii "-                                                                     |  |  |   ***         ***                                                            -\0"
	.align 4
LC490:
	.ascii "-                                                                     |  |  |   ***          **                                                            -\0"
	.align 4
LC491:
	.ascii "-                                                                     |  |  |   **           **                                                            -\0"
	.align 4
LC492:
	.ascii "-                                                                     |  |  |    *           *                                                             -\0"
	.align 4
LC493:
	.ascii "-                                                                     |  |  |     **       **                                                              -\0"
	.align 4
LC494:
	.ascii "-                                                                     |  |  |       *******                                                                -\0"
	.align 4
LC495:
	.ascii "-                                                                     |  |  |                                                                              -\0"
	.align 4
LC496:
	.ascii "-                                                                    /-------\\                                                                             -\0"
	.align 4
LC497:
	.ascii "-                                                                    \\-------/                                                                             -\0"
	.align 4
LC498:
	.ascii "-                                                                       ***                                                                                -\0"
	.align 4
LC499:
	.ascii "-                                                                      *   *                                                                               -\0"
	.align 4
LC500:
	.ascii "-                                                                   *   ***                                                                                -\0"
	.align 4
LC501:
	.ascii "-                                                                *   *   |                                                                                 -\0"
	.align 4
LC502:
	.ascii "-                                                             *   *      *                                                                                 -\0"
	.align 4
LC503:
	.ascii "-                                                                              *    *********    *                                                         -\0"
	.align 4
LC504:
	.ascii "-                                                                               * */ /********* *                                                          -\0"
	.align 4
LC505:
	.ascii "-                                                                              /    / /      ***                                                           -\0"
	.align 4
LC506:
	.ascii "-                                                                             /    /          **                                                           -\0"
	.align 4
LC507:
	.ascii "-                                                                            /    /    /      **                                                           -\0"
	.align 4
LC508:
	.ascii "-                                                                           /    /    /       *                                                            -\0"
	.align 4
LC509:
	.ascii "-                                                                          /    /    /      **                                                             -\0"
	.align 4
LC510:
	.ascii "-                                                                         /    /    /*******                                                               -\0"
	.align 4
LC511:
	.ascii "-                                                                        /    /    /                                                                       -\0"
	.align 4
LC512:
	.ascii "-                                                                      *     /    /                                                                        -\0"
	.align 4
LC513:
	.ascii "-                                                                           *    /                                                                         -\0"
	.align 4
LC514:
	.ascii "-                                                                          /     *                                                                         -\0"
	.align 4
LC515:
	.ascii "-                                                                *   * /                                                                                   -\0"
	.align 4
LC516:
	.ascii "-                                                             *   *   *                                                                                    -\0"
	.align 4
LC517:
	.ascii "-                                                                              *  =====******    *                                                         -\0"
	.align 4
LC518:
	.ascii "-                                                                              ====/ /===****** *                                                          -\0"
	.align 4
LC519:
	.ascii "-                                                                            ==/    / /===== ***                                                           -\0"
	.align 4
LC520:
	.ascii "-                                                                        =====/    /   =======**                                                           -\0"
	.align 4
LC521:
	.ascii "-                                                                         ===/    /    /===   **                                                           -\0"
	.align 4
LC522:
	.ascii "-                                                                          =/    /    /==     *                                                            -\0"
	.align 4
LC523:
	.ascii "-    *                                                            \271\245\273\367\301\313\276\253\301\351\301\324\310\313\243\241\243\241\243\241                                                               *     -\0"
	.align 4
LC524:
	.ascii "-    *                                                                 <\0"
	.align 4
LC525:
	.ascii ">\11                                                                     *     -\0"
	.align 4
LC526:
	.ascii "-    *                                                            \326\330\273\367\301\313\276\253\301\351\301\324\310\313\243\241\243\241\243\241                                                               *    -\0"
	.align 4
LC527:
	.ascii ">\11                                                                    *    -\0"
	.align 4
LC528:
	.ascii "-    *                                                                 \271\255\274\375\262\273\304\334\261\273\267\300\323\371                                                                *     -\0"
	.align 4
LC529:
	.ascii "-                             ***    *   /                                                        *----|-*****                                             -\0"
	.align 4
LC530:
	.ascii "-                           *******/   /   /                                                        -   / |  *****                                         -\0"
	.align 4
LC531:
	.ascii "-                              * *    /   /                                                            | -| **   *                                         -\0"
	.align 4
LC532:
	.ascii "-                             ***    *   /                                                   *-------  | *|  * **                                          -\0"
	.align 4
LC533:
	.ascii "-                              **  /                                                                  -|  |  *                                             -\0"
	.align 4
LC534:
	.ascii "-                          *       */   /   /                                                   -        /|  *                                             -\0"
	.align 4
LC535:
	.ascii "-                           *******/   /   /                                            -               / |  *****                                         -\0"
	.align 4
LC536:
	.ascii "-                              * *    /   /                                     -            -     -   |  | **   *                                         -\0"
	.align 4
LC537:
	.ascii "-                             ***    *   /                                    *-------                 | *|  * **                                          -\0"
	.align 4
LC538:
	.ascii "-                            ********    *                                                        -    *  |  *                                             -\0"
	.align 4
LC539:
	.ascii "-                              **  /                                                     -             |  |  *                                             -\0"
	.align 4
LC540:
	.ascii "-                              *  *                                                             -       \\ |  *                                             -\0"
	.align 4
LC541:
	.ascii "-                          *********  /   /   /                                 -                        **     **                                         -\0"
	.align 4
LC542:
	.ascii "-                          *       */   /   /                                         -                  /|  *                                             -\0"
	.align 4
LC543:
	.ascii "-                           *******/   /   /                        -      -                            / |  *****                                         -\0"
	.align 4
LC544:
	.ascii "-                              * *    /   /                     -             -                        |  | **   *                                         -\0"
	.align 4
LC545:
	.ascii "-                             ***    *   /                 *-------      - -               -           | *|  * **                                          -\0"
	.align 4
LC546:
	.ascii "-                            ********    *                                             -               *  |  *                                             -\0"
	.align 4
LC547:
	.ascii "-                              **  /                                 -         -                       |  |  *                                             -\0"
	.align 4
LC548:
	.ascii "-                              *                                              -                          \\| * *                                            -\0"
	.align 4
LC549:
	.ascii "-                           *******/  =/   /                                                            / |  *****                                         -\0"
	.align 4
LC550:
	.ascii "-                              * *  =========                                                          |  | **   *                                         -\0"
	.align 4
LC551:
	.ascii "-                             *** ====*-------                                                         | *|  * **                                          -\0"
	.align 4
LC552:
	.ascii "-                            *******=======                                                            *  |  *                                             -\0"
	.align 4
LC553:
	.ascii "-                              **  / ==                                                                |  |  *                                             -\0"
	.align 4
LC554:
	.ascii "-    *                                                              \304\343\261\273\271\255\274\375\311\347\261\243\301\313\243\241                                                                 *     -\0"
	.align 4
LC555:
	.ascii "-    *                                                                   <\0"
	.align 4
LC556:
	.ascii ">\11                                                                     *    -\0"
	.align 4
LC557:
	.ascii "-    *                                                                 \314\345\301\246\262\273\327\343                                                                      *     -\0"
	.align 4
LC558:
	.ascii "-                                                                                                     * *********** *                                      -\0"
	.align 4
LC559:
	.ascii "-                                                                                                      **         **                                       -\0"
	.align 4
LC560:
	.ascii "-                           *******                                                                     *         *                                        -\0"
	.align 4
LC561:
	.ascii "-                          *********                                                                     **     **                                         -\0"
	.align 4
LC562:
	.ascii "-                          *       *                                                                       *****                                           -\0"
	.align 4
LC563:
	.ascii "-                          *       *                                                                     /|  *                                             -\0"
	.align 4
LC564:
	.ascii "-                           *******                                                                     / |  ****                                          -\0"
	.align 4
LC565:
	.ascii "-                              *                                                                       |  | ** *                                           -\0"
	.align 4
LC566:
	.ascii "-                             ***                                                                      | *****                                             -\0"
	.align 4
LC567:
	.ascii "-                            *****                                                                     *  |  *                                             -\0"
	.align 4
LC568:
	.ascii "-                              ***\\                                                                    |  |  *                                             -\0"
	.align 4
LC569:
	.ascii "-                              *   *                                                                    \\ |  *                                             -\0"
	.align 4
LC570:
	.ascii "-                              *    \\   *                                                                \\| * *                                            -\0"
	.align 4
LC571:
	.ascii "-                             ***    *  \\                                                                  *   *                                           -\0"
	.align 4
LC572:
	.ascii "-                            *   **   \\  \\                                                                 *   *                                           -\0"
	.align 4
LC573:
	.ascii "-                           *     * \\  \\  \\                                                                *                                               -\0"
	.align 4
LC574:
	.ascii "-                           *      * \\  \\  \\                                                               *                                               -\0"
	.align 4
LC575:
	.ascii "-                           *       * \\  \\  \\                                                                                                              -\0"
	.align 4
LC576:
	.ascii "-                                      \\  \\  \\                                                                                                             -\0"
	.align 4
LC577:
	.ascii "-     ___________________*    ***                                                                      | *****                                             -\0"
	.align 4
LC578:
	.ascii "-    -                       ****                                                                      *  |  *                                             -\0"
	.align 4
LC579:
	.ascii "-   ---------------------*--****                                                                       |  |  *                                             -\0"
	.align 4
LC580:
	.ascii "-    -___________________      *                                                                        \\ |  *                                             -\0"
	.align 4
LC581:
	.ascii "-                        *     *                                                                         \\| * *                                            -\0"
	.align 4
LC582:
	.ascii "-                                    *******                                                            *         *                                        -\0"
	.align 4
LC583:
	.ascii "-                                   *********                                                            **     **                                         -\0"
	.align 4
LC584:
	.ascii "-                                   *       *                                                              *****                                           -\0"
	.align 4
LC585:
	.ascii "-                                   *       *                                                            /|  *                                             -\0"
	.align 4
LC586:
	.ascii "-                                    *******                                                            / |  ****                                          -\0"
	.align 4
LC587:
	.ascii "-                                       *    *___________________                                      |  | ** *                                           -\0"
	.align 4
LC588:
	.ascii "-                                      ***                       -                                     | *****                                             -\0"
	.align 4
LC589:
	.ascii "-                                      *****-*---------------------                                    *  |  *                                             -\0"
	.align 4
LC590:
	.ascii "-                                       *     ___________________-                                     |  |  *                                             -\0"
	.align 4
LC591:
	.ascii "-                                       *    *                                                          \\ |  *                                             -\0"
	.align 4
LC592:
	.ascii "-                                       *                                                                \\| * *                                            -\0"
	.align 4
LC593:
	.ascii "-                                      ***                                                                 *   *                                           -\0"
	.align 4
LC594:
	.ascii "-                                     *   *                                                                *   *                                           -\0"
	.align 4
LC595:
	.ascii "-                                     *    *                                                               *                                               -\0"
	.align 4
LC596:
	.ascii "-                                     *     *                                                              *                                               -\0"
	.align 4
LC597:
	.ascii "-                                     *      *                                                                                                             -\0"
	.align 4
LC598:
	.ascii "-                                                      *******                                          *         *                                        -\0"
	.align 4
LC599:
	.ascii "-                                                     *********                                          **     **                                         -\0"
	.align 4
LC600:
	.ascii "-                                                     *       *                                            *****                                           -\0"
	.align 4
LC601:
	.ascii "-                                                     *       *                                          /|  *                                             -\0"
	.align 4
LC602:
	.ascii "-                                                      *******                                          / |  ****                                          -\0"
	.align 4
LC603:
	.ascii "-                                                         *                                            |  | ** *                                           -\0"
	.align 4
LC604:
	.ascii "-                                ___________________*    ***                                           | *****                                             -\0"
	.align 4
LC605:
	.ascii "-                               -                       ****                                           *  |  *                                             -\0"
	.align 4
LC606:
	.ascii "-                              ---------------------*--****                                            |  |  *                                             -\0"
	.align 4
LC607:
	.ascii "-                               -___________________      *                                             \\ |  *                                             -\0"
	.align 4
LC608:
	.ascii "-                                                   *     *                                              \\| * *                                            -\0"
	.align 4
LC609:
	.ascii "-                                                        ***                                               *   *                                           -\0"
	.align 4
LC610:
	.ascii "-                                                       *   *                                              *   *                                           -\0"
	.align 4
LC611:
	.ascii "-                                                      *     *                                             *                                               -\0"
	.align 4
LC612:
	.ascii "-                                                     *      *                                             *                                               -\0"
	.align 4
LC613:
	.ascii "-                                                    *       *                                                                                             -\0"
	.align 4
LC614:
	.ascii "-                                                                        *******                        *         *                                        -\0"
	.align 4
LC615:
	.ascii "-                                                                       *********                        **     **                                         -\0"
	.align 4
LC616:
	.ascii "-                                                                       *       *                          *****                                           -\0"
	.align 4
LC617:
	.ascii "-                                                                       *       *                        /|  *                                             -\0"
	.align 4
LC618:
	.ascii "-                                                                        *******                        / |  ****                                          -\0"
	.align 4
LC619:
	.ascii "-                                                                           *    *___________________  |  | ** *                                           -\0"
	.align 4
LC620:
	.ascii "-                                                                          ***                       - | *****                                             -\0"
	.align 4
LC621:
	.ascii "-                                                                          *****-*---------------------*  |  *                                             -\0"
	.align 4
LC622:
	.ascii "-                                                                           *     ___________________- |  |  *                                             -\0"
	.align 4
LC623:
	.ascii "-                                                                           *    *                      \\ |  *                                             -\0"
	.align 4
LC624:
	.ascii "-                                                                           *                            \\| * *                                            -\0"
	.align 4
LC625:
	.ascii "-                                                                          ***                             *   *                                           -\0"
	.align 4
LC626:
	.ascii "-                                                                         *   *                            *   *                                           -\0"
	.align 4
LC627:
	.ascii "-                                                                         *    *                           *                                               -\0"
	.align 4
LC628:
	.ascii "-                                                                         *     *                          *                                               -\0"
	.align 4
LC629:
	.ascii "-                                                                         *      *                                                                         -\0"
	.align 4
LC630:
	.ascii "-                                                                           *                          |  | ** *                                           -\0"
	.align 4
LC631:
	.ascii "-                                                  ___________________*    ***                         | *****                                             -\0"
	.align 4
LC632:
	.ascii "-                                                 -                       ****                         *  |  *                                             -\0"
	.align 4
LC633:
	.ascii "-                                                ---------------------*--****                          |  |  *                                             -\0"
	.align 4
LC634:
	.ascii "-                                                 -___________________      *                           \\ |  *                                             -\0"
	.align 4
LC635:
	.ascii "-                                                                     *     *                            \\| * *                                            -\0"
	.align 4
LC636:
	.ascii "-                                                                        *     *                           *                                               -\0"
	.align 4
LC637:
	.ascii "-                                                                       *      *                           *                                               -\0"
	.align 4
LC638:
	.ascii "-                                                                      *       *                                                                          -\0"
	.align 4
LC639:
	.ascii "-    *                                                                        !                                                                      *     -\0"
	.align 4
LC640:
	.ascii "-                                                                          *******                      *         *                                        -\0"
	.align 4
LC641:
	.ascii "-                                                                         *********                      **     **                                         -\0"
	.align 4
LC642:
	.ascii "-                                                                         *       *                        *****                                           -\0"
	.align 4
LC643:
	.ascii "-                                                                         *       *                      /|  *                                             -\0"
	.align 4
LC644:
	.ascii "-                                                                          *******                      / |  ****                                          -\0"
	.align 4
LC645:
	.ascii "-                                                                             *    *_________________=====| ** *                                           -\0"
	.align 4
LC646:
	.ascii "-                                                                            ***                       -===***                                             -\0"
	.align 4
LC647:
	.ascii "-                                                                            *****-*---------------------====*                                             -\0"
	.align 4
LC648:
	.ascii "-                                                                             *     ___________________-===  *                                             -\0"
	.align 4
LC649:
	.ascii "-                                                                             *    *                 ==== |  *                                             -\0"
	.align 4
LC650:
	.ascii "-                                                                             *                          \\| * *                                            -\0"
	.align 4
LC651:
	.ascii "-                                                                            ***                           *   *                                           -\0"
	.align 4
LC652:
	.ascii "-                                                                           *   *                          *   *                                           -\0"
	.align 4
LC653:
	.ascii "-                                                                          *     *                         *                                               -\0"
	.align 4
LC654:
	.ascii "-                                                                          *      *                        *                                               -\0"
	.align 4
LC655:
	.ascii "-                                                                          *       *                                                                       -\0"
	.align 4
LC656:
	.ascii "-    *                                                                     !  !  !                                                                   *     -\0"
	.align 4
LC657:
	.ascii "-                                                                                 |                                                                        -\0"
	.align 4
LC658:
	.ascii "-                                                                              |  |  |                                                                     -\0"
	.align 4
LC659:
	.ascii "-                                                                              |  |  |                   *********                                         -\0"
	.align 4
LC660:
	.ascii "-                                                                        ******|  |  |                * *********** *                                      -\0"
	.align 4
LC661:
	.ascii "-                                                                       *******|  |  |                 **         **                                       -\0"
	.align 4
LC662:
	.ascii "-                                                                       *     *   *   *                 *         *                                        -\0"
	.align 4
LC663:
	.ascii "-                                                                       *       * |                      **     **                                         -\0"
	.align 4
LC664:
	.ascii "-                                                                        *******  *                        *****                                           -\0"
	.align 4
LC665:
	.ascii "-                                                                           *   * |                      /|  *                                             -\0"
	.align 4
LC666:
	.ascii "-                                                                          ****   *                     / |  ****                                          -\0"
	.align 4
LC667:
	.ascii "-                                                                           *                          | *****                                             -\0"
	.align 4
LC668:
	.ascii "-                                                                           *                          *  |  *                                             -\0"
	.align 4
LC669:
	.ascii "-                                                                           *                          |  |  *                                             -\0"
	.align 4
LC670:
	.ascii "-                                                                          ***                          \\ |  *                                             -\0"
	.align 4
LC671:
	.ascii "-                                                                         *   *                          \\| * *                                            -\0"
	.align 4
LC672:
	.ascii "-                                                                          *   *                           *   *                                           -\0"
	.align 4
LC673:
	.ascii "-                                                                          *    *                          *   *                                           -\0"
	.align 4
LC674:
	.ascii "-                                                                                                          *                                               -\0"
	.align 4
LC675:
	.ascii "-    *                                                             -  -  -  -  -  -  -  -                                                            *     -\0"
	.align 4
LC676:
	.ascii "-                                                                       *       *                  =     /|  *                                             -\0"
	.align 4
LC677:
	.ascii "-                                                                           **                =    =   |  | ** *                                           -\0"
	.align 4
LC678:
	.ascii "-                                                                          ***                         | =****                                             -\0"
	.align 4
LC679:
	.ascii "-                                                                          ***    *_____________=___===*  |  *    =                                        -\0"
	.align 4
LC680:
	.ascii "-                                                                           * *            =      ======  |  *                                             -\0"
	.align 4
LC681:
	.ascii "-                                                                           **-*--*--------------========= |  *       =                                    -\0"
	.align 4
LC682:
	.ascii "-                                                                           *      __________=_____======\\| * *                                            -\0"
	.align 4
LC683:
	.ascii "-                                                                          ***    *                      = *   *                                           -\0"
	.align 4
LC684:
	.ascii "-                                                                         *   *                  =    =  = *   *                                           -\0"
	.align 4
LC685:
	.ascii "-                                                                     * * * *                  =           *                                               -\0"
	.align 4
LC686:
	.ascii "-                                                                      *   *                               *                                               -\0"
	.align 4
LC687:
	.ascii "-    *                                                            \243\241\243\241\243\241\320\375\267\347\325\266\243\241\243\241\243\241                                                                 *     -\0"
	.align 4
LC688:
	.ascii "-                                                                        \271\276\340\340\271\276\340\340...             *****************                                         -\0"
	.align 4
LC689:
	.ascii "-                                                                                      *                                   *                               -\0"
	.align 4
LC690:
	.ascii "-                                                                                    *                                       *                             -\0"
	.align 4
LC691:
	.ascii "-                           *******                                                *                                           *                           -\0"
	.align 4
LC692:
	.ascii "-                          *********                                              *            ###               ###            *                          -\0"
	.align 4
LC693:
	.ascii "-                          *       *                                             *                                               *                         -\0"
	.align 4
LC694:
	.ascii "-                          *       *                                            *                                                 *                        -\0"
	.align 4
LC695:
	.ascii "-                           *******                                            *                                                   *                       -\0"
	.align 4
LC696:
	.ascii "-                              *                                               *                                                   *                       -\0"
	.align 4
LC697:
	.ascii "-                             ***                                              *                                                   *                       -\0"
	.align 4
LC698:
	.ascii "-                            * * *                                              *                                                 *                        -\0"
	.align 4
LC699:
	.ascii "-                           *  *  *                                              *                                               *                         -\0"
	.align 4
LC700:
	.ascii "-                              *                                                  *                                             *                          -\0"
	.align 4
LC701:
	.ascii "-                                     \243\241\243\241\243\241                                         *                                       *                             -\0"
	.align 4
LC702:
	.ascii "-                      *       *                                                  *                                             *                          -\0"
	.align 4
LC703:
	.ascii "-                     **       *                                                   **                                         **                           -\0"
	.align 4
LC704:
	.ascii "-                    * *      ***                                                    **                                     **                             -\0"
	.align 4
LC705:
	.ascii "-                    *  *    *   *                                                     *************************************                               -\0"
	.align 4
LC706:
	.ascii "-                    *   *  *     *     *                                                                                                                  -\0"
	.align 4
LC707:
	.ascii "-                      *   *      *    * *                                                                                                                 -\0"
	.align 4
LC708:
	.ascii "-                     **  *       *   *  *                                                                                                                 -\0"
	.align 4
LC709:
	.ascii "-                     * *                                                                                                                                  -\0"
	.align 4
LC710:
	.ascii "-                                     \260\241 \311\355\314\345\261\273\300\246\306\360\300\264\301\313                                *                                   *                               -\0"
	.align 4
LC711:
	.ascii "-                            *****                                             *                                                   *                       -\0"
	.align 4
LC712:
	.ascii "-                        *  ******                                              *                                                 *                        -\0"
	.align 4
LC713:
	.ascii "-                     *  *    *****                                              *                                               *                         -\0"
	.align 4
LC714:
	.ascii "-                   *  *       ***   *                                            *                                             *                          -\0"
	.align 4
LC715:
	.ascii "-                  *  *        *   *   *                                           **                                         **                           -\0"
	.align 4
LC716:
	.ascii "-                  *   *      ***    *   *                                           **                                     **                             -\0"
	.align 4
LC717:
	.ascii "-                  *    *    *   *    *   *                                            *************************************                               -\0"
	.align 4
LC718:
	.ascii "-                  *     *****    *    *   *                                                                                                               -\0"
	.align 4
LC719:
	.ascii "-                      *  **      *    *    *                                                                                                              -\0"
	.align 4
LC720:
	.ascii "-                     *  **       *   *    *                                                                                                               -\0"
	.align 4
LC721:
	.ascii "-                     *  *                                                                                                                                 -\0"
	.align 4
LC722:
	.ascii "-                                     \264\245\312\326\324\365\303\264\360\244\360\244\265\304 \337\355                                *                                   *                               -\0"
	.align 4
LC723:
	.ascii "-                           *******   *                                        *                                                   *                       -\0"
	.align 4
LC724:
	.ascii "-               *              *       **                                      *                                                   *                       -\0"
	.align 4
LC725:
	.ascii "-             **             *****      * *                                    *                                                   *                       -\0"
	.align 4
LC726:
	.ascii "-            * *         *  ******      *  *                                    *                                                 *                        -\0"
	.align 4
LC727:
	.ascii "-           *  *      *  *    *****     *  *                                     *                                               *                         -\0"
	.align 4
LC728:
	.ascii "-           *  *    *  *       ***   *                                            *                                             *                          -\0"
	.align 4
LC729:
	.ascii "-                  *   *       *   *   *                                           **                                         **                           -\0"
	.align 4
LC730:
	.ascii "-                                     \260\241                                               *                                   *                               -\0"
	.align 4
LC731:
	.ascii "-                      *   *       ** *                                         *                                                 *                        -\0"
	.align 4
LC732:
	.ascii "-                       *** ******* ** *                                       *                                                   *                       -\0"
	.align 4
LC733:
	.ascii "-                   * *  ***   *  *   *   *                                    *                                                   *                       -\0"
	.align 4
LC734:
	.ascii "-                 *     *    *****      *   *                                  *                                                   *                       -\0"
	.align 4
LC735:
	.ascii "-               *    *   *  ******       *    *                                 *                                                 *                        -\0"
	.align 4
LC736:
	.ascii "-            *    *   *  *    ******      *     *                                *                                               *                         -\0"
	.align 4
LC737:
	.ascii "-              \272\364 \327\334\313\343\325\365\315\321\277\252\301\313           / / /                                         *                                   *                               -\0"
	.align 4
LC738:
	.ascii "-    *                                                              \304\343\261\273Slime\270\247\303\376\301\313                                                                  *     -\0"
	.align 4
LC739:
	.ascii "-                                                          *****************     *****************                                                         -\0"
	.align 4
LC740:
	.ascii "-                                                  **************                           **************                                                 -\0"
	.align 4
LC741:
	.ascii "-                                                *************        *****************        ************                                                -\0"
	.align 4
LC742:
	.ascii "-                                            ***************     *                         *     **************                                            -\0"
	.align 4
LC743:
	.ascii "-                                          ***************    *                               *    **************                                          -\0"
	.align 4
LC744:
	.ascii "-                                        ****************   *                                   *   ****************                                       -\0"
	.align 4
LC745:
	.ascii "-                                        ***************  *                                       *  ***************                                       -\0"
	.align 4
LC746:
	.ascii "-                                        **************  *          ###               ###          *  **************                                       -\0"
	.align 4
LC747:
	.ascii "-                                        *************  *                                           *  *************                                       -\0"
	.align 4
LC748:
	.ascii "-                                                     *                                               *                                                    -\0"
	.align 4
LC749:
	.ascii "-                                                       *                                           *                                                      -\0"
	.align 4
LC750:
	.ascii "-                                                         **                                     **                                                        -\0"
	.align 4
LC751:
	.ascii "-                                                           **                                 **                                                          -\0"
	.align 4
LC752:
	.ascii "-                                                          *  *********************************  *                                                         -\0"
	.align 4
LC753:
	.ascii "-    *                                                           BOSS <Slime> \263\366\317\326\301\313\243\241\243\241\243\241                                                           *     -\0"
	.align 4
LC754:
	.ascii "-    *                                                              \304\343\262\273\304\334\265\326\265\262Slime\265\304\271\245\273\367                                                            *     -\0"
	.align 4
LC755:
	.ascii "-                                                                *******           *                                           *                           -\0"
	.align 4
LC756:
	.ascii "-                                                               *********         *          ###                  ###           *                          -\0"
	.align 4
LC757:
	.ascii "-                                                               *       *        *                                               *                         -\0"
	.align 4
LC758:
	.ascii "-                                -                              *       *       *                                                 *                        -\0"
	.align 4
LC759:
	.ascii "-                                                                *******       *                                                   *                       -\0"
	.align 4
LC760:
	.ascii "-               -                                                   *          *                                                   *                       -\0"
	.align 4
LC761:
	.ascii "-                                                                  ***         *                                                   *                       -\0"
	.align 4
LC762:
	.ascii "-                     -                  ____________________*    ***           *                                                 *                        -\0"
	.align 4
LC763:
	.ascii "-                                       -                        *  *            *                                               *                         -\0"
	.align 4
LC764:
	.ascii "-                                      ----------------------*--*-* *             *                                             *                          -\0"
	.align 4
LC765:
	.ascii "-             -                         -____________________       *              **                                         **                           -\0"
	.align 4
LC766:
	.ascii "-                                                            *     ***               **                                     **                             -\0"
	.align 4
LC767:
	.ascii "-                            -                                    *   *                *************************************                               -\0"
	.align 4
LC768:
	.ascii "-                                                                *     *                                                                                   -\0"
	.align 4
LC769:
	.ascii "-                                                               *      *                                                                                   -\0"
	.align 4
LC770:
	.ascii "-                                                              *       *                                                                                   -\0"
	.align 4
LC771:
	.ascii "-                                                              *******             *                                           *                           -\0"
	.align 4
LC772:
	.ascii "-                                                             *********           *          ###                  ###           *                          -\0"
	.align 4
LC773:
	.ascii "-                                                             *       *          *                                               *                         -\0"
	.align 4
LC774:
	.ascii "-                                                             *       *         *      ======                                     *                        -\0"
	.align 4
LC775:
	.ascii "-                                                              ******* *____________________===                                    *                       -\0"
	.align 4
LC776:
	.ascii "-                                                                 *                         -====                                  *                       -\0"
	.align 4
LC777:
	.ascii "-                                                               ******-*----------------------======                               *                       -\0"
	.align 4
LC778:
	.ascii "-                                                                ***    ____________________-====                                 *                        -\0"
	.align 4
LC779:
	.ascii "-                                                                 *    *         *   =========                                   *                         -\0"
	.align 4
LC780:
	.ascii "-                                                                 *               *    ==                                       *                          -\0"
	.align 4
LC781:
	.ascii "-                                                                 *                **                                         **                           -\0"
	.align 4
LC782:
	.ascii "-                                                                ***                 **                                     **                             -\0"
	.align 4
LC783:
	.ascii "-                                                               *   *                  *************************************                               -\0"
	.align 4
LC784:
	.ascii "-                                                              *     *                                                                                     -\0"
	.align 4
LC785:
	.ascii "-                                                             *      *                                                                                     -\0"
	.align 4
LC786:
	.ascii "-                                                            *       *                                                                                     -\0"
	.align 4
LC787:
	.ascii "-    *                                                                \271\245\273\367\301\313Slime\243\241                                                                  *     -\0"
	.align 4
LC788:
	.ascii "-    *                                                                \326\330\273\367\301\313Slime\243\241                                                                  *     -\0"
	.align 4
LC789:
	.ascii "-             -                                                 *       *        *                                               *                         -\0"
	.align 4
LC790:
	.ascii "-               -                           -                       *          *                                                   *                       -\0"
	.align 4
LC791:
	.ascii "-                                                       -          ***         *                                                   *                       -\0"
	.align 4
LC792:
	.ascii "-        -                              -                        *  *            *                                               *                         -\0"
	.align 4
LC793:
	.ascii "-                     -                 -____________________       *              **                                         **                           -\0"
	.align 4
LC794:
	.ascii "-            -                           -                       *     *                                                                                   -\0"
	.align 4
LC795:
	.ascii "-    *                                                                     \243\241                                                                        *     -\0"
	.align 4
LC796:
	.ascii "-    *                                                                   \243\241\243\241\243\241                                                                      *     -\0"
	.align 4
LC797:
	.ascii "-                                                                       |                                                                                  -\0"
	.align 4
LC798:
	.ascii "-                                                                    |  |  |                                                                               -\0"
	.align 4
LC799:
	.ascii "-                                                                    |  |  |                     *****************                                         -\0"
	.align 4
LC800:
	.ascii "-                                                                    |  |  |                *                         *                                    -\0"
	.align 4
LC801:
	.ascii "-                                                                    |  |  |             *                               *                                 -\0"
	.align 4
LC802:
	.ascii "-                                                              ******|  |  |           *                                   *                               -\0"
	.align 4
LC803:
	.ascii "-                                                             *******|  |  |         *                                       *                             -\0"
	.align 4
LC804:
	.ascii "-                                                             *     *   *   *      *                                           *                           -\0"
	.align 4
LC805:
